
========================================================================

** ELF Header Information

    File Name: .\Objects\bsp_nuc220xx.axf

    Machine class: ELFCLASS32 (32-bit)
    Data encoding: ELFDATA2LSB (Little endian)
    Header version: EV_CURRENT (Current version)
    Operating System ABI: none
    ABI Version: 0
    File Type: ET_EXEC (Executable) (2)
    Machine: EM_ARM (ARM)

    Image Entry point: Not specified
    Flags: EF_ARM_ABI_FLOAT_SOFT (0x05000200)

    ARM ELF revision: 5 (ABI version 2)

    Conforms to Soft float procedure-call standard

    Built with
    Component: ARM Compiler 6.14 Tool: armasm [5db06800]
    Component: ARM Compiler 6.14 Tool: armlink [5db06800]

    Header size: 52 bytes (0x34)
    Program header entry size: 32 bytes (0x20)
    Section header entry size: 40 bytes (0x28)

    Program header entries: 1
    Section header entries: 15

    Program header offset: 74092 (0x0001216c)
    Section header offset: 74124 (0x0001218c)

    Section header string table index: 14

========================================================================

** Program header #0 (PT_LOAD) [PF_X + PF_W + PF_R]
    Size : 11608 bytes (10344 bytes in file)
    Virtual address: 0x0000c000 (Alignment 8)


========================================================================

** Section #1 'ER_IROM1' (SHT_PROGBITS) [SHF_ALLOC + SHF_EXECINSTR]
    Size   : 10292 bytes (alignment 4)
    Address: 0x0000c000

    $d.realdata
    RESET
    __Vectors
        0x0000c000:    20000520     ..     DCD    536872224
        0x0000c004:    0000c0d5    ....    DCD    49365
        0x0000c008:    0000c0f5    ....    DCD    49397
        0x0000c00c:    0000d429    )...    DCD    54313
        0x0000c010:    00000000    ....    DCD    0
        0x0000c014:    00000000    ....    DCD    0
        0x0000c018:    00000000    ....    DCD    0
        0x0000c01c:    00000000    ....    DCD    0
        0x0000c020:    00000000    ....    DCD    0
        0x0000c024:    00000000    ....    DCD    0
        0x0000c028:    00000000    ....    DCD    0
        0x0000c02c:    0000c0f9    ....    DCD    49401
        0x0000c030:    00000000    ....    DCD    0
        0x0000c034:    00000000    ....    DCD    0
        0x0000c038:    0000c0fb    ....    DCD    49403
        0x0000c03c:    0000c0fd    ....    DCD    49405
        0x0000c040:    0000c0ff    ....    DCD    49407
        0x0000c044:    0000d9a9    ....    DCD    55721
        0x0000c048:    0000c0ff    ....    DCD    49407
        0x0000c04c:    0000c0ff    ....    DCD    49407
        0x0000c050:    0000c0ff    ....    DCD    49407
        0x0000c054:    0000c0ff    ....    DCD    49407
        0x0000c058:    0000c0ff    ....    DCD    49407
        0x0000c05c:    0000c0ff    ....    DCD    49407
        0x0000c060:    0000d875    u...    DCD    55413
        0x0000c064:    0000d899    ....    DCD    55449
        0x0000c068:    0000c0ff    ....    DCD    49407
        0x0000c06c:    0000c0ff    ....    DCD    49407
        0x0000c070:    0000c0ff    ....    DCD    49407
        0x0000c074:    0000c0ff    ....    DCD    49407
        0x0000c078:    0000c0ff    ....    DCD    49407
        0x0000c07c:    0000c0ff    ....    DCD    49407
        0x0000c080:    0000c0ff    ....    DCD    49407
        0x0000c084:    0000c0ff    ....    DCD    49407
        0x0000c088:    0000c0ff    ....    DCD    49407
        0x0000c08c:    0000c0ff    ....    DCD    49407
        0x0000c090:    0000c0ff    ....    DCD    49407
        0x0000c094:    0000c0ff    ....    DCD    49407
        0x0000c098:    0000c0ff    ....    DCD    49407
        0x0000c09c:    0000c0ff    ....    DCD    49407
        0x0000c0a0:    0000c0ff    ....    DCD    49407
        0x0000c0a4:    0000c0ff    ....    DCD    49407
        0x0000c0a8:    0000c0ff    ....    DCD    49407
        0x0000c0ac:    0000c0ff    ....    DCD    49407
        0x0000c0b0:    0000c0ff    ....    DCD    49407
        0x0000c0b4:    0000c0ff    ....    DCD    49407
        0x0000c0b8:    0000c0ff    ....    DCD    49407
        0x0000c0bc:    0000d511    ....    DCD    54545
    $t
    .ARM.Collect$$$$00000000
    .ARM.Collect$$$$00000001
    __main
    _main_stk
        0x0000c0c0:    4803        .H      LDR      r0,__lit__00000000 ; [0xc0d0] = 0x20000520
        0x0000c0c2:    4685        .F      MOV      sp,r0
    .ARM.Collect$$$$00000004
    _main_scatterload
        0x0000c0c4:    f000fa38    ..8.    BL       __scatterload ; 0xc538
    .ARM.Collect$$$$00000008
    .ARM.Collect$$$$0000000A
    .ARM.Collect$$$$0000000B
    __main_after_scatterload
    _main_clock
    _main_cpp_init
    _main_init
        0x0000c0c8:    4800        .H      LDR      r0,[pc,#0] ; [0xc0cc] = 0xdc5d
        0x0000c0ca:    4700        .G      BX       r0
    $d
        0x0000c0cc:    0000dc5d    ]...    DCD    56413
    .ARM.Collect$$$$00002712
    __lit__00000000
    .ARM.Collect$$$$0000000D
    .ARM.Collect$$$$0000000F
    __rt_final_cpp
    __rt_final_exit
        0x0000c0d0:    20000520     ..     DCD    536872224
    $t
    .text
    Reset_Handler
        0x0000c0d4:    480a        .H      LDR      r0,[pc,#40] ; [0xc100] = 0x50000100
        0x0000c0d6:    490b        .I      LDR      r1,[pc,#44] ; [0xc104] = 0x59
        0x0000c0d8:    6001        .`      STR      r1,[r0,#0]
        0x0000c0da:    490b        .I      LDR      r1,[pc,#44] ; [0xc108] = 0x16
        0x0000c0dc:    6001        .`      STR      r1,[r0,#0]
        0x0000c0de:    490b        .I      LDR      r1,[pc,#44] ; [0xc10c] = 0x88
        0x0000c0e0:    6001        .`      STR      r1,[r0,#0]
        0x0000c0e2:    4a0b        .J      LDR      r2,[pc,#44] ; [0xc110] = 0x50000024
        0x0000c0e4:    490b        .I      LDR      r1,[pc,#44] ; [0xc114] = 0x5aa5
        0x0000c0e6:    6011        .`      STR      r1,[r2,#0]
        0x0000c0e8:    2100        .!      MOVS     r1,#0
        0x0000c0ea:    6001        .`      STR      r1,[r0,#0]
        0x0000c0ec:    480a        .H      LDR      r0,[pc,#40] ; [0xc118] = 0xd711
        0x0000c0ee:    4780        .G      BLX      r0
        0x0000c0f0:    480a        .H      LDR      r0,[pc,#40] ; [0xc11c] = 0xc0c1
        0x0000c0f2:    4700        .G      BX       r0
    NMI_Handler
        0x0000c0f4:    e7fe        ..      B        NMI_Handler ; 0xc0f4
        0x0000c0f6:    e7fe        ..      B        0xc0f6 ; NMI_Handler + 2
    SVC_Handler
        0x0000c0f8:    e7fe        ..      B        SVC_Handler ; 0xc0f8
    PendSV_Handler
        0x0000c0fa:    e7fe        ..      B        PendSV_Handler ; 0xc0fa
    SysTick_Handler
        0x0000c0fc:    e7fe        ..      B        SysTick_Handler ; 0xc0fc
    Default_Handler
    ACMP_IRQHandler
    ADC_IRQHandler
    BOD_IRQHandler
    CAN0_IRQHandler
    CAN1_IRQHandler
    EINT0_IRQHandler
    EINT1_IRQHandler
    GPAB_IRQHandler
    GPCDEF_IRQHandler
    I2C0_IRQHandler
    I2C1_IRQHandler
    I2S_IRQHandler
    PDMA_IRQHandler
    PS2_IRQHandler
    PWMA_IRQHandler
    PWMB_IRQHandler
    PWRWU_IRQHandler
    SC012_IRQHandler
    SPI0_IRQHandler
    SPI1_IRQHandler
    SPI2_IRQHandler
    SPI3_IRQHandler
    TMR2_IRQHandler
    TMR3_IRQHandler
    UART02_IRQHandler
    UART1_IRQHandler
    USBD_IRQHandler
        0x0000c0fe:    e7fe        ..      B        Default_Handler ; 0xc0fe
    $d
        0x0000c100:    50000100    ...P    DCD    1342177536
        0x0000c104:    00000059    Y...    DCD    89
        0x0000c108:    00000016    ....    DCD    22
        0x0000c10c:    00000088    ....    DCD    136
        0x0000c110:    50000024    $..P    DCD    1342177316
        0x0000c114:    00005aa5    .Z..    DCD    23205
        0x0000c118:    0000d711    ....    DCD    55057
        0x0000c11c:    0000c0c1    ....    DCD    49345
    $t
    .text
    __aeabi_uidiv
    __aeabi_uidivmod
        0x0000c120:    b530        0.      PUSH     {r4,r5,lr}
        0x0000c122:    460b        .F      MOV      r3,r1
        0x0000c124:    4601        .F      MOV      r1,r0
        0x0000c126:    2000        .       MOVS     r0,#0
        0x0000c128:    2220         "      MOVS     r2,#0x20
        0x0000c12a:    2401        .$      MOVS     r4,#1
        0x0000c12c:    e009        ..      B        0xc142 ; __aeabi_uidiv + 34
        0x0000c12e:    460d        .F      MOV      r5,r1
        0x0000c130:    40d5        .@      LSRS     r5,r5,r2
        0x0000c132:    429d        .B      CMP      r5,r3
        0x0000c134:    d305        ..      BCC      0xc142 ; __aeabi_uidiv + 34
        0x0000c136:    461d        .F      MOV      r5,r3
        0x0000c138:    4095        .@      LSLS     r5,r5,r2
        0x0000c13a:    1b49        I.      SUBS     r1,r1,r5
        0x0000c13c:    4625        %F      MOV      r5,r4
        0x0000c13e:    4095        .@      LSLS     r5,r5,r2
        0x0000c140:    1940        @.      ADDS     r0,r0,r5
        0x0000c142:    4615        .F      MOV      r5,r2
        0x0000c144:    1e52        R.      SUBS     r2,r2,#1
        0x0000c146:    2d00        .-      CMP      r5,#0
        0x0000c148:    dcf1        ..      BGT      0xc12e ; __aeabi_uidiv + 14
        0x0000c14a:    bd30        0.      POP      {r4,r5,pc}
    .text
    __aeabi_uldivmod
        0x0000c14c:    b5f0        ..      PUSH     {r4-r7,lr}
        0x0000c14e:    b41f        ..      PUSH     {r0-r4}
        0x0000c150:    4606        .F      MOV      r6,r0
        0x0000c152:    2000        .       MOVS     r0,#0
        0x0000c154:    b082        ..      SUB      sp,sp,#8
        0x0000c156:    4605        .F      MOV      r5,r0
        0x0000c158:    2440        @$      MOVS     r4,#0x40
        0x0000c15a:    9101        ..      STR      r1,[sp,#4]
        0x0000c15c:    9000        ..      STR      r0,[sp,#0]
        0x0000c15e:    e01b        ..      B        0xc198 ; __aeabi_uldivmod + 76
        0x0000c160:    9901        ..      LDR      r1,[sp,#4]
        0x0000c162:    4622        "F      MOV      r2,r4
        0x0000c164:    460f        .F      MOV      r7,r1
        0x0000c166:    4630        0F      MOV      r0,r6
        0x0000c168:    f000fa08    ....    BL       __aeabi_llsr ; 0xc57c
        0x0000c16c:    9a04        ..      LDR      r2,[sp,#0x10]
        0x0000c16e:    9b05        ..      LDR      r3,[sp,#0x14]
        0x0000c170:    1a80        ..      SUBS     r0,r0,r2
        0x0000c172:    4199        .A      SBCS     r1,r1,r3
        0x0000c174:    d310        ..      BCC      0xc198 ; __aeabi_uldivmod + 76
        0x0000c176:    4610        .F      MOV      r0,r2
        0x0000c178:    4619        .F      MOV      r1,r3
        0x0000c17a:    4622        "F      MOV      r2,r4
        0x0000c17c:    f000f9ee    ....    BL       __aeabi_llsl ; 0xc55c
        0x0000c180:    1a36        6.      SUBS     r6,r6,r0
        0x0000c182:    418f        .A      SBCS     r7,r7,r1
        0x0000c184:    9701        ..      STR      r7,[sp,#4]
        0x0000c186:    4622        "F      MOV      r2,r4
        0x0000c188:    2001        .       MOVS     r0,#1
        0x0000c18a:    2100        .!      MOVS     r1,#0
        0x0000c18c:    9f00        ..      LDR      r7,[sp,#0]
        0x0000c18e:    f000f9e5    ....    BL       __aeabi_llsl ; 0xc55c
        0x0000c192:    1838        8.      ADDS     r0,r7,r0
        0x0000c194:    414d        MA      ADCS     r5,r5,r1
        0x0000c196:    9000        ..      STR      r0,[sp,#0]
        0x0000c198:    4620         F      MOV      r0,r4
        0x0000c19a:    1e64        d.      SUBS     r4,r4,#1
        0x0000c19c:    2800        .(      CMP      r0,#0
        0x0000c19e:    dcdf        ..      BGT      0xc160 ; __aeabi_uldivmod + 20
        0x0000c1a0:    9b01        ..      LDR      r3,[sp,#4]
        0x0000c1a2:    9800        ..      LDR      r0,[sp,#0]
        0x0000c1a4:    4629        )F      MOV      r1,r5
        0x0000c1a6:    4632        2F      MOV      r2,r6
        0x0000c1a8:    b007        ..      ADD      sp,sp,#0x1c
        0x0000c1aa:    bdf0        ..      POP      {r4-r7,pc}
    .text
    .text
    __I$use$fp
    __aeabi_dadd
        0x0000c1ac:    b5f0        ..      PUSH     {r4-r7,lr}
        0x0000c1ae:    4607        .F      MOV      r7,r0
        0x0000c1b0:    4608        .F      MOV      r0,r1
        0x0000c1b2:    4058        X@      EORS     r0,r0,r3
        0x0000c1b4:    b087        ..      SUB      sp,sp,#0x1c
        0x0000c1b6:    0fc0        ..      LSRS     r0,r0,#31
        0x0000c1b8:    9004        ..      STR      r0,[sp,#0x10]
        0x0000c1ba:    0048        H.      LSLS     r0,r1,#1
        0x0000c1bc:    460e        .F      MOV      r6,r1
        0x0000c1be:    0059        Y.      LSLS     r1,r3,#1
        0x0000c1c0:    0840        @.      LSRS     r0,r0,#1
        0x0000c1c2:    0849        I.      LSRS     r1,r1,#1
        0x0000c1c4:    1abc        ..      SUBS     r4,r7,r2
        0x0000c1c6:    4188        .A      SBCS     r0,r0,r1
        0x0000c1c8:    d205        ..      BCS      0xc1d6 ; __I$use$fp + 42
        0x0000c1ca:    4638        8F      MOV      r0,r7
        0x0000c1cc:    4631        1F      MOV      r1,r6
        0x0000c1ce:    461e        .F      MOV      r6,r3
        0x0000c1d0:    4617        .F      MOV      r7,r2
        0x0000c1d2:    460b        .F      MOV      r3,r1
        0x0000c1d4:    4602        .F      MOV      r2,r0
        0x0000c1d6:    0058        X.      LSLS     r0,r3,#1
        0x0000c1d8:    0840        @.      LSRS     r0,r0,#1
        0x0000c1da:    4310        .C      ORRS     r0,r0,r2
        0x0000c1dc:    d04c        L.      BEQ      0xc278 ; __I$use$fp + 204
        0x0000c1de:    0d30        0.      LSRS     r0,r6,#20
        0x0000c1e0:    9003        ..      STR      r0,[sp,#0xc]
        0x0000c1e2:    0540        @.      LSLS     r0,r0,#21
        0x0000c1e4:    0059        Y.      LSLS     r1,r3,#1
        0x0000c1e6:    0d40        @.      LSRS     r0,r0,#21
        0x0000c1e8:    0d49        I.      LSRS     r1,r1,#21
        0x0000c1ea:    9005        ..      STR      r0,[sp,#0x14]
        0x0000c1ec:    1a40        @.      SUBS     r0,r0,r1
        0x0000c1ee:    9002        ..      STR      r0,[sp,#8]
        0x0000c1f0:    2840        @(      CMP      r0,#0x40
        0x0000c1f2:    da72        r.      BGE      0xc2da ; __I$use$fp + 302
        0x0000c1f4:    0318        ..      LSLS     r0,r3,#12
        0x0000c1f6:    2101        .!      MOVS     r1,#1
        0x0000c1f8:    0b00        ..      LSRS     r0,r0,#12
        0x0000c1fa:    0509        ..      LSLS     r1,r1,#20
        0x0000c1fc:    4308        .C      ORRS     r0,r0,r1
        0x0000c1fe:    9001        ..      STR      r0,[sp,#4]
        0x0000c200:    9804        ..      LDR      r0,[sp,#0x10]
        0x0000c202:    9200        ..      STR      r2,[sp,#0]
        0x0000c204:    2800        .(      CMP      r0,#0
        0x0000c206:    d005        ..      BEQ      0xc214 ; __I$use$fp + 104
        0x0000c208:    9901        ..      LDR      r1,[sp,#4]
        0x0000c20a:    4252        RB      RSBS     r2,r2,#0
        0x0000c20c:    2000        .       MOVS     r0,#0
        0x0000c20e:    4188        .A      SBCS     r0,r0,r1
        0x0000c210:    9200        ..      STR      r2,[sp,#0]
        0x0000c212:    9001        ..      STR      r0,[sp,#4]
        0x0000c214:    9802        ..      LDR      r0,[sp,#8]
        0x0000c216:    2140        @!      MOVS     r1,#0x40
        0x0000c218:    1a0a        ..      SUBS     r2,r1,r0
        0x0000c21a:    9901        ..      LDR      r1,[sp,#4]
        0x0000c21c:    9800        ..      LDR      r0,[sp,#0]
        0x0000c21e:    f000f99d    ....    BL       __aeabi_llsl ; 0xc55c
        0x0000c222:    4605        .F      MOV      r5,r0
        0x0000c224:    460c        .F      MOV      r4,r1
        0x0000c226:    466b        kF      MOV      r3,sp
        0x0000c228:    cb07        ..      LDM      r3!,{r0-r2}
        0x0000c22a:    f000f9b8    ....    BL       __aeabi_lasr ; 0xc59e
        0x0000c22e:    19c0        ..      ADDS     r0,r0,r7
        0x0000c230:    4171        qA      ADCS     r1,r1,r6
        0x0000c232:    9a03        ..      LDR      r2,[sp,#0xc]
        0x0000c234:    0d0e        ..      LSRS     r6,r1,#20
        0x0000c236:    2300        .#      MOVS     r3,#0
        0x0000c238:    17d7        ..      ASRS     r7,r2,#31
        0x0000c23a:    4056        V@      EORS     r6,r6,r2
        0x0000c23c:    461a        .F      MOV      r2,r3
        0x0000c23e:    407a        z@      EORS     r2,r2,r7
        0x0000c240:    4316        .C      ORRS     r6,r6,r2
        0x0000c242:    d044        D.      BEQ      0xc2ce ; __I$use$fp + 290
        0x0000c244:    9a04        ..      LDR      r2,[sp,#0x10]
        0x0000c246:    2a00        .*      CMP      r2,#0
        0x0000c248:    d02d        -.      BEQ      0xc2a6 ; __I$use$fp + 250
        0x0000c24a:    9a02        ..      LDR      r2,[sp,#8]
        0x0000c24c:    2a01        .*      CMP      r2,#1
        0x0000c24e:    9a03        ..      LDR      r2,[sp,#0xc]
        0x0000c250:    dc15        ..      BGT      0xc27e ; __I$use$fp + 210
        0x0000c252:    0512        ..      LSLS     r2,r2,#20
        0x0000c254:    1ac0        ..      SUBS     r0,r0,r3
        0x0000c256:    4191        .A      SBCS     r1,r1,r2
        0x0000c258:    2601        .&      MOVS     r6,#1
        0x0000c25a:    0536        6.      LSLS     r6,r6,#20
        0x0000c25c:    1c00        ..      ADDS     r0,r0,#0
        0x0000c25e:    4171        qA      ADCS     r1,r1,r6
        0x0000c260:    0fd2        ..      LSRS     r2,r2,#31
        0x0000c262:    9e05        ..      LDR      r6,[sp,#0x14]
        0x0000c264:    07d2        ..      LSLS     r2,r2,#31
        0x0000c266:    9300        ..      STR      r3,[sp,#0]
        0x0000c268:    9201        ..      STR      r2,[sp,#4]
        0x0000c26a:    9602        ..      STR      r6,[sp,#8]
        0x0000c26c:    462a        *F      MOV      r2,r5
        0x0000c26e:    4623        #F      MOV      r3,r4
        0x0000c270:    f000f9b5    ....    BL       _double_epilogue ; 0xc5de
        0x0000c274:    b007        ..      ADD      sp,sp,#0x1c
        0x0000c276:    bdf0        ..      POP      {r4-r7,pc}
        0x0000c278:    4638        8F      MOV      r0,r7
        0x0000c27a:    4631        1F      MOV      r1,r6
        0x0000c27c:    e7fa        ..      B        0xc274 ; __I$use$fp + 200
        0x0000c27e:    0516        ..      LSLS     r6,r2,#20
        0x0000c280:    4a22        "J      LDR      r2,[pc,#136] ; [0xc30c] = 0xffe00000
        0x0000c282:    460f        .F      MOV      r7,r1
        0x0000c284:    18b2        ..      ADDS     r2,r6,r2
        0x0000c286:    1ac0        ..      SUBS     r0,r0,r3
        0x0000c288:    41b7        .A      SBCS     r7,r7,r6
        0x0000c28a:    2101        .!      MOVS     r1,#1
        0x0000c28c:    0509        ..      LSLS     r1,r1,#20
        0x0000c28e:    1c00        ..      ADDS     r0,r0,#0
        0x0000c290:    414f        OA      ADCS     r7,r7,r1
        0x0000c292:    1800        ..      ADDS     r0,r0,r0
        0x0000c294:    417f        .A      ADCS     r7,r7,r7
        0x0000c296:    4611        .F      MOV      r1,r2
        0x0000c298:    1818        ..      ADDS     r0,r3,r0
        0x0000c29a:    4179        yA      ADCS     r1,r1,r7
        0x0000c29c:    0fe2        ..      LSRS     r2,r4,#31
        0x0000c29e:    4310        .C      ORRS     r0,r0,r2
        0x0000c2a0:    196d        m.      ADDS     r5,r5,r5
        0x0000c2a2:    4164        dA      ADCS     r4,r4,r4
        0x0000c2a4:    e013        ..      B        0xc2ce ; __I$use$fp + 290
        0x0000c2a6:    07e2        ..      LSLS     r2,r4,#31
        0x0000c2a8:    086d        m.      LSRS     r5,r5,#1
        0x0000c2aa:    4315        .C      ORRS     r5,r5,r2
        0x0000c2ac:    0864        d.      LSRS     r4,r4,#1
        0x0000c2ae:    07c2        ..      LSLS     r2,r0,#31
        0x0000c2b0:    4314        .C      ORRS     r4,r4,r2
        0x0000c2b2:    9a03        ..      LDR      r2,[sp,#0xc]
        0x0000c2b4:    2601        .&      MOVS     r6,#1
        0x0000c2b6:    0512        ..      LSLS     r2,r2,#20
        0x0000c2b8:    1ac0        ..      SUBS     r0,r0,r3
        0x0000c2ba:    4191        .A      SBCS     r1,r1,r2
        0x0000c2bc:    0536        6.      LSLS     r6,r6,#20
        0x0000c2be:    1c00        ..      ADDS     r0,r0,#0
        0x0000c2c0:    4171        qA      ADCS     r1,r1,r6
        0x0000c2c2:    07ce        ..      LSLS     r6,r1,#31
        0x0000c2c4:    0840        @.      LSRS     r0,r0,#1
        0x0000c2c6:    4330        0C      ORRS     r0,r0,r6
        0x0000c2c8:    0849        I.      LSRS     r1,r1,#1
        0x0000c2ca:    18c0        ..      ADDS     r0,r0,r3
        0x0000c2cc:    4151        QA      ADCS     r1,r1,r2
        0x0000c2ce:    462a        *F      MOV      r2,r5
        0x0000c2d0:    4623        #F      MOV      r3,r4
        0x0000c2d2:    f000f977    ..w.    BL       _double_round ; 0xc5c4
        0x0000c2d6:    e7cd        ..      B        0xc274 ; __I$use$fp + 200
        0x0000c2d8:    e7ff        ..      B        0xc2da ; __I$use$fp + 302
        0x0000c2da:    9804        ..      LDR      r0,[sp,#0x10]
        0x0000c2dc:    2201        ."      MOVS     r2,#1
        0x0000c2de:    0040        @.      LSLS     r0,r0,#1
        0x0000c2e0:    17c1        ..      ASRS     r1,r0,#31
        0x0000c2e2:    1a12        ..      SUBS     r2,r2,r0
        0x0000c2e4:    2300        .#      MOVS     r3,#0
        0x0000c2e6:    418b        .A      SBCS     r3,r3,r1
        0x0000c2e8:    9804        ..      LDR      r0,[sp,#0x10]
        0x0000c2ea:    4631        1F      MOV      r1,r6
        0x0000c2ec:    17c4        ..      ASRS     r4,r0,#31
        0x0000c2ee:    1a38        8.      SUBS     r0,r7,r0
        0x0000c2f0:    41a1        .A      SBCS     r1,r1,r4
        0x0000c2f2:    e7ee        ..      B        0xc2d2 ; __I$use$fp + 294
    __aeabi_dsub
        0x0000c2f4:    b430        0.      PUSH     {r4,r5}
        0x0000c2f6:    2401        .$      MOVS     r4,#1
        0x0000c2f8:    07e4        ..      LSLS     r4,r4,#31
        0x0000c2fa:    4063        c@      EORS     r3,r3,r4
        0x0000c2fc:    bc30        0.      POP      {r4,r5}
        0x0000c2fe:    e755        U.      B        __I$use$fp ; 0xc1ac
    __aeabi_drsub
        0x0000c300:    b430        0.      PUSH     {r4,r5}
        0x0000c302:    2401        .$      MOVS     r4,#1
        0x0000c304:    07e4        ..      LSLS     r4,r4,#31
        0x0000c306:    4061        a@      EORS     r1,r1,r4
        0x0000c308:    bc30        0.      POP      {r4,r5}
        0x0000c30a:    e74f        O.      B        __I$use$fp ; 0xc1ac
    $d
        0x0000c30c:    ffe00000    ....    DCD    4292870144
    $t
    .text
    __aeabi_dmul
        0x0000c310:    b5f0        ..      PUSH     {r4-r7,lr}
        0x0000c312:    b41f        ..      PUSH     {r0-r4}
        0x0000c314:    b088        ..      SUB      sp,sp,#0x20
        0x0000c316:    990b        ..      LDR      r1,[sp,#0x2c]
        0x0000c318:    9809        ..      LDR      r0,[sp,#0x24]
        0x0000c31a:    2400        .$      MOVS     r4,#0
        0x0000c31c:    4048        H@      EORS     r0,r0,r1
        0x0000c31e:    9909        ..      LDR      r1,[sp,#0x24]
        0x0000c320:    0fc0        ..      LSRS     r0,r0,#31
        0x0000c322:    0049        I.      LSLS     r1,r1,#1
        0x0000c324:    0849        I.      LSRS     r1,r1,#1
        0x0000c326:    9109        ..      STR      r1,[sp,#0x24]
        0x0000c328:    07c0        ..      LSLS     r0,r0,#31
        0x0000c32a:    990b        ..      LDR      r1,[sp,#0x2c]
        0x0000c32c:    9000        ..      STR      r0,[sp,#0]
        0x0000c32e:    0049        I.      LSLS     r1,r1,#1
        0x0000c330:    0849        I.      LSRS     r1,r1,#1
        0x0000c332:    910b        ..      STR      r1,[sp,#0x2c]
        0x0000c334:    9909        ..      LDR      r1,[sp,#0x24]
        0x0000c336:    9808        ..      LDR      r0,[sp,#0x20]
        0x0000c338:    46a6        .F      MOV      lr,r4
        0x0000c33a:    4308        .C      ORRS     r0,r0,r1
        0x0000c33c:    d01c        ..      BEQ      0xc378 ; __aeabi_dmul + 104
        0x0000c33e:    990b        ..      LDR      r1,[sp,#0x2c]
        0x0000c340:    980a        ..      LDR      r0,[sp,#0x28]
        0x0000c342:    4308        .C      ORRS     r0,r0,r1
        0x0000c344:    d018        ..      BEQ      0xc378 ; __aeabi_dmul + 104
        0x0000c346:    9809        ..      LDR      r0,[sp,#0x24]
        0x0000c348:    2401        .$      MOVS     r4,#1
        0x0000c34a:    0040        @.      LSLS     r0,r0,#1
        0x0000c34c:    0d42        B.      LSRS     r2,r0,#21
        0x0000c34e:    0048        H.      LSLS     r0,r1,#1
        0x0000c350:    0d41        A.      LSRS     r1,r0,#21
        0x0000c352:    9809        ..      LDR      r0,[sp,#0x24]
        0x0000c354:    0524        $.      LSLS     r4,r4,#20
        0x0000c356:    0300        ..      LSLS     r0,r0,#12
        0x0000c358:    0b00        ..      LSRS     r0,r0,#12
        0x0000c35a:    4320         C      ORRS     r0,r0,r4
        0x0000c35c:    9009        ..      STR      r0,[sp,#0x24]
        0x0000c35e:    980b        ..      LDR      r0,[sp,#0x2c]
        0x0000c360:    0300        ..      LSLS     r0,r0,#12
        0x0000c362:    0b00        ..      LSRS     r0,r0,#12
        0x0000c364:    4320         C      ORRS     r0,r0,r4
        0x0000c366:    900b        ..      STR      r0,[sp,#0x2c]
        0x0000c368:    1850        P.      ADDS     r0,r2,r1
        0x0000c36a:    491c        .I      LDR      r1,[pc,#112] ; [0xc3dc] = 0xfffffc0d
        0x0000c36c:    1840        @.      ADDS     r0,r0,r1
        0x0000c36e:    2200        ."      MOVS     r2,#0
        0x0000c370:    9001        ..      STR      r0,[sp,#4]
        0x0000c372:    4614        .F      MOV      r4,r2
        0x0000c374:    4610        .F      MOV      r0,r2
        0x0000c376:    e005        ..      B        0xc384 ; __aeabi_dmul + 116
        0x0000c378:    2000        .       MOVS     r0,#0
        0x0000c37a:    4601        .F      MOV      r1,r0
        0x0000c37c:    b00d        ..      ADD      sp,sp,#0x34
        0x0000c37e:    bdf0        ..      POP      {r4-r7,pc}
        0x0000c380:    2803        .(      CMP      r0,#3
        0x0000c382:    da01        ..      BGE      0xc388 ; __aeabi_dmul + 120
        0x0000c384:    4603        .F      MOV      r3,r0
        0x0000c386:    e000        ..      B        0xc38a ; __aeabi_dmul + 122
        0x0000c388:    2303        .#      MOVS     r3,#3
        0x0000c38a:    469c        .F      MOV      r12,r3
        0x0000c38c:    1ac1        ..      SUBS     r1,r0,r3
        0x0000c38e:    ae0a        ..      ADD      r6,sp,#0x28
        0x0000c390:    e00a        ..      B        0xc3a8 ; __aeabi_dmul + 152
        0x0000c392:    005f        _.      LSLS     r7,r3,#1
        0x0000c394:    ad08        ..      ADD      r5,sp,#0x20
        0x0000c396:    5bed        .[      LDRH     r5,[r5,r7]
        0x0000c398:    004f        O.      LSLS     r7,r1,#1
        0x0000c39a:    5bf7        .[      LDRH     r7,[r6,r7]
        0x0000c39c:    437d        }C      MULS     r5,r7,r5
        0x0000c39e:    2700        .'      MOVS     r7,#0
        0x0000c3a0:    18aa        ..      ADDS     r2,r5,r2
        0x0000c3a2:    417c        |A      ADCS     r4,r4,r7
        0x0000c3a4:    1c49        I.      ADDS     r1,r1,#1
        0x0000c3a6:    1e5b        [.      SUBS     r3,r3,#1
        0x0000c3a8:    4561        aE      CMP      r1,r12
        0x0000c3aa:    ddf2        ..      BLE      0xc392 ; __aeabi_dmul + 130
        0x0000c3ac:    0041        A.      LSLS     r1,r0,#1
        0x0000c3ae:    ab04        ..      ADD      r3,sp,#0x10
        0x0000c3b0:    525a        ZR      STRH     r2,[r3,r1]
        0x0000c3b2:    0421        !.      LSLS     r1,r4,#16
        0x0000c3b4:    0c12        ..      LSRS     r2,r2,#16
        0x0000c3b6:    430a        .C      ORRS     r2,r2,r1
        0x0000c3b8:    0c24        $.      LSRS     r4,r4,#16
        0x0000c3ba:    1c40        @.      ADDS     r0,r0,#1
        0x0000c3bc:    2808        .(      CMP      r0,#8
        0x0000c3be:    dbdf        ..      BLT      0xc380 ; __aeabi_dmul + 112
        0x0000c3c0:    9801        ..      LDR      r0,[sp,#4]
        0x0000c3c2:    9002        ..      STR      r0,[sp,#8]
        0x0000c3c4:    9900        ..      LDR      r1,[sp,#0]
        0x0000c3c6:    4670        pF      MOV      r0,lr
        0x0000c3c8:    9101        ..      STR      r1,[sp,#4]
        0x0000c3ca:    9000        ..      STR      r0,[sp,#0]
        0x0000c3cc:    9b05        ..      LDR      r3,[sp,#0x14]
        0x0000c3ce:    9a04        ..      LDR      r2,[sp,#0x10]
        0x0000c3d0:    9907        ..      LDR      r1,[sp,#0x1c]
        0x0000c3d2:    9806        ..      LDR      r0,[sp,#0x18]
        0x0000c3d4:    f000f903    ....    BL       _double_epilogue ; 0xc5de
        0x0000c3d8:    e7d0        ..      B        0xc37c ; __aeabi_dmul + 108
    $d
        0x0000c3da:    0000        ..      DCW    0
        0x0000c3dc:    fffffc0d    ....    DCD    4294966285
    $t
    .text
    __aeabi_ddiv
        0x0000c3e0:    b5f0        ..      PUSH     {r4-r7,lr}
        0x0000c3e2:    460c        .F      MOV      r4,r1
        0x0000c3e4:    405c        \@      EORS     r4,r4,r3
        0x0000c3e6:    b085        ..      SUB      sp,sp,#0x14
        0x0000c3e8:    0fe4        ..      LSRS     r4,r4,#31
        0x0000c3ea:    07e4        ..      LSLS     r4,r4,#31
        0x0000c3ec:    9403        ..      STR      r4,[sp,#0xc]
        0x0000c3ee:    004c        L.      LSLS     r4,r1,#1
        0x0000c3f0:    2600        .&      MOVS     r6,#0
        0x0000c3f2:    0864        d.      LSRS     r4,r4,#1
        0x0000c3f4:    0059        Y.      LSLS     r1,r3,#1
        0x0000c3f6:    4694        .F      MOV      r12,r2
        0x0000c3f8:    0849        I.      LSRS     r1,r1,#1
        0x0000c3fa:    4602        .F      MOV      r2,r0
        0x0000c3fc:    9602        ..      STR      r6,[sp,#8]
        0x0000c3fe:    4322        "C      ORRS     r2,r2,r4
        0x0000c400:    d021        !.      BEQ      0xc446 ; __aeabi_ddiv + 102
        0x0000c402:    4662        bF      MOV      r2,r12
        0x0000c404:    430a        .C      ORRS     r2,r2,r1
        0x0000c406:    d01e        ..      BEQ      0xc446 ; __aeabi_ddiv + 102
        0x0000c408:    0062        b.      LSLS     r2,r4,#1
        0x0000c40a:    0d57        W.      LSRS     r7,r2,#21
        0x0000c40c:    004a        J.      LSLS     r2,r1,#1
        0x0000c40e:    030e        ..      LSLS     r6,r1,#12
        0x0000c410:    0323        #.      LSLS     r3,r4,#12
        0x0000c412:    0d55        U.      LSRS     r5,r2,#21
        0x0000c414:    2401        .$      MOVS     r4,#1
        0x0000c416:    4602        .F      MOV      r2,r0
        0x0000c418:    492c        ,I      LDR      r1,[pc,#176] ; [0xc4cc] = 0x3fd
        0x0000c41a:    0524        $.      LSLS     r4,r4,#20
        0x0000c41c:    1b78        x.      SUBS     r0,r7,r5
        0x0000c41e:    0b1b        ..      LSRS     r3,r3,#12
        0x0000c420:    0b36        6.      LSRS     r6,r6,#12
        0x0000c422:    1840        @.      ADDS     r0,r0,r1
        0x0000c424:    4323        #C      ORRS     r3,r3,r4
        0x0000c426:    4326        &C      ORRS     r6,r6,r4
        0x0000c428:    4661        aF      MOV      r1,r12
        0x0000c42a:    9000        ..      STR      r0,[sp,#0]
        0x0000c42c:    461c        .F      MOV      r4,r3
        0x0000c42e:    1a50        P.      SUBS     r0,r2,r1
        0x0000c430:    41b4        .A      SBCS     r4,r4,r6
        0x0000c432:    d303        ..      BCC      0xc43c ; __aeabi_ddiv + 92
        0x0000c434:    9800        ..      LDR      r0,[sp,#0]
        0x0000c436:    1c40        @.      ADDS     r0,r0,#1
        0x0000c438:    9000        ..      STR      r0,[sp,#0]
        0x0000c43a:    e002        ..      B        0xc442 ; __aeabi_ddiv + 98
        0x0000c43c:    1892        ..      ADDS     r2,r2,r2
        0x0000c43e:    9800        ..      LDR      r0,[sp,#0]
        0x0000c440:    415b        [A      ADCS     r3,r3,r3
        0x0000c442:    2800        .(      CMP      r0,#0
        0x0000c444:    da03        ..      BGE      0xc44e ; __aeabi_ddiv + 110
        0x0000c446:    2000        .       MOVS     r0,#0
        0x0000c448:    4601        .F      MOV      r1,r0
        0x0000c44a:    b005        ..      ADD      sp,sp,#0x14
        0x0000c44c:    bdf0        ..      POP      {r4-r7,pc}
        0x0000c44e:    2000        .       MOVS     r0,#0
        0x0000c450:    2101        .!      MOVS     r1,#1
        0x0000c452:    0509        ..      LSLS     r1,r1,#20
        0x0000c454:    4607        .F      MOV      r7,r0
        0x0000c456:    4686        .F      MOV      lr,r0
        0x0000c458:    e011        ..      B        0xc47e ; __aeabi_ddiv + 158
        0x0000c45a:    4664        dF      MOV      r4,r12
        0x0000c45c:    461d        .F      MOV      r5,r3
        0x0000c45e:    1b14        ..      SUBS     r4,r2,r4
        0x0000c460:    41b5        .A      SBCS     r5,r5,r6
        0x0000c462:    d306        ..      BCC      0xc472 ; __aeabi_ddiv + 146
        0x0000c464:    4665        eF      MOV      r5,r12
        0x0000c466:    1b52        R.      SUBS     r2,r2,r5
        0x0000c468:    41b3        .A      SBCS     r3,r3,r6
        0x0000c46a:    4674        tF      MOV      r4,lr
        0x0000c46c:    4307        .C      ORRS     r7,r7,r0
        0x0000c46e:    430c        .C      ORRS     r4,r4,r1
        0x0000c470:    46a6        .F      MOV      lr,r4
        0x0000c472:    07cd        ..      LSLS     r5,r1,#31
        0x0000c474:    0840        @.      LSRS     r0,r0,#1
        0x0000c476:    0849        I.      LSRS     r1,r1,#1
        0x0000c478:    4328        (C      ORRS     r0,r0,r5
        0x0000c47a:    1892        ..      ADDS     r2,r2,r2
        0x0000c47c:    415b        [A      ADCS     r3,r3,r3
        0x0000c47e:    4605        .F      MOV      r5,r0
        0x0000c480:    430d        .C      ORRS     r5,r5,r1
        0x0000c482:    d1ea        ..      BNE      0xc45a ; __aeabi_ddiv + 122
        0x0000c484:    4610        .F      MOV      r0,r2
        0x0000c486:    4318        .C      ORRS     r0,r0,r3
        0x0000c488:    d013        ..      BEQ      0xc4b2 ; __aeabi_ddiv + 210
        0x0000c48a:    4660        `F      MOV      r0,r12
        0x0000c48c:    4619        .F      MOV      r1,r3
        0x0000c48e:    4050        P@      EORS     r0,r0,r2
        0x0000c490:    4071        q@      EORS     r1,r1,r6
        0x0000c492:    4308        .C      ORRS     r0,r0,r1
        0x0000c494:    d006        ..      BEQ      0xc4a4 ; __aeabi_ddiv + 196
        0x0000c496:    4660        `F      MOV      r0,r12
        0x0000c498:    1a10        ..      SUBS     r0,r2,r0
        0x0000c49a:    41b3        .A      SBCS     r3,r3,r6
        0x0000c49c:    d206        ..      BCS      0xc4ac ; __aeabi_ddiv + 204
        0x0000c49e:    2201        ."      MOVS     r2,#1
        0x0000c4a0:    2300        .#      MOVS     r3,#0
        0x0000c4a2:    e006        ..      B        0xc4b2 ; __aeabi_ddiv + 210
        0x0000c4a4:    2200        ."      MOVS     r2,#0
        0x0000c4a6:    2301        .#      MOVS     r3,#1
        0x0000c4a8:    07db        ..      LSLS     r3,r3,#31
        0x0000c4aa:    e002        ..      B        0xc4b2 ; __aeabi_ddiv + 210
        0x0000c4ac:    2201        ."      MOVS     r2,#1
        0x0000c4ae:    43d2        .C      MVNS     r2,r2
        0x0000c4b0:    1053        S.      ASRS     r3,r2,#1
        0x0000c4b2:    9800        ..      LDR      r0,[sp,#0]
        0x0000c4b4:    4674        tF      MOV      r4,lr
        0x0000c4b6:    0501        ..      LSLS     r1,r0,#20
        0x0000c4b8:    1c38        8.      ADDS     r0,r7,#0
        0x0000c4ba:    4161        aA      ADCS     r1,r1,r4
        0x0000c4bc:    9c02        ..      LDR      r4,[sp,#8]
        0x0000c4be:    9d03        ..      LDR      r5,[sp,#0xc]
        0x0000c4c0:    1900        ..      ADDS     r0,r0,r4
        0x0000c4c2:    4169        iA      ADCS     r1,r1,r5
        0x0000c4c4:    f000f87e    ..~.    BL       _double_round ; 0xc5c4
        0x0000c4c8:    e7bf        ..      B        0xc44a ; __aeabi_ddiv + 106
    $d
        0x0000c4ca:    0000        ..      DCW    0
        0x0000c4cc:    000003fd    ....    DCD    1021
    $t
    .text
    __aeabi_d2ulz
        0x0000c4d0:    004a        J.      LSLS     r2,r1,#1
        0x0000c4d2:    0309        ..      LSLS     r1,r1,#12
        0x0000c4d4:    2301        .#      MOVS     r3,#1
        0x0000c4d6:    0b09        ..      LSRS     r1,r1,#12
        0x0000c4d8:    051b        ..      LSLS     r3,r3,#20
        0x0000c4da:    4319        .C      ORRS     r1,r1,r3
        0x0000c4dc:    4b0a        .K      LDR      r3,[pc,#40] ; [0xc508] = 0x3ff
        0x0000c4de:    b510        ..      PUSH     {r4,lr}
        0x0000c4e0:    0d52        R.      LSRS     r2,r2,#21
        0x0000c4e2:    429a        .B      CMP      r2,r3
        0x0000c4e4:    da02        ..      BGE      0xc4ec ; __aeabi_d2ulz + 28
        0x0000c4e6:    2000        .       MOVS     r0,#0
        0x0000c4e8:    4601        .F      MOV      r1,r0
        0x0000c4ea:    bd10        ..      POP      {r4,pc}
        0x0000c4ec:    4b06        .K      LDR      r3,[pc,#24] ; [0xc508] = 0x3ff
        0x0000c4ee:    3334        43      ADDS     r3,r3,#0x34
        0x0000c4f0:    429a        .B      CMP      r2,r3
        0x0000c4f2:    dc03        ..      BGT      0xc4fc ; __aeabi_d2ulz + 44
        0x0000c4f4:    1a9a        ..      SUBS     r2,r3,r2
        0x0000c4f6:    f000f841    ..A.    BL       __aeabi_llsr ; 0xc57c
        0x0000c4fa:    bd10        ..      POP      {r4,pc}
        0x0000c4fc:    4b03        .K      LDR      r3,[pc,#12] ; [0xc50c] = 0xfffffbcd
        0x0000c4fe:    18d2        ..      ADDS     r2,r2,r3
        0x0000c500:    f000f82c    ..,.    BL       __aeabi_llsl ; 0xc55c
        0x0000c504:    bd10        ..      POP      {r4,pc}
    $d
        0x0000c506:    0000        ..      DCW    0
        0x0000c508:    000003ff    ....    DCD    1023
        0x0000c50c:    fffffbcd    ....    DCD    4294966221
    $t
    .text
    __aeabi_cdrcmple
        0x0000c510:    b510        ..      PUSH     {r4,lr}
        0x0000c512:    2900        .)      CMP      r1,#0
        0x0000c514:    db04        ..      BLT      0xc520 ; __aeabi_cdrcmple + 16
        0x0000c516:    2401        .$      MOVS     r4,#1
        0x0000c518:    07e4        ..      LSLS     r4,r4,#31
        0x0000c51a:    4240        @B      RSBS     r0,r0,#0
        0x0000c51c:    418c        .A      SBCS     r4,r4,r1
        0x0000c51e:    4621        !F      MOV      r1,r4
        0x0000c520:    2b00        .+      CMP      r3,#0
        0x0000c522:    db04        ..      BLT      0xc52e ; __aeabi_cdrcmple + 30
        0x0000c524:    461c        .F      MOV      r4,r3
        0x0000c526:    2301        .#      MOVS     r3,#1
        0x0000c528:    07db        ..      LSLS     r3,r3,#31
        0x0000c52a:    4252        RB      RSBS     r2,r2,#0
        0x0000c52c:    41a3        .A      SBCS     r3,r3,r4
        0x0000c52e:    4299        .B      CMP      r1,r3
        0x0000c530:    d100        ..      BNE      0xc534 ; __aeabi_cdrcmple + 36
        0x0000c532:    4290        .B      CMP      r0,r2
        0x0000c534:    bd10        ..      POP      {r4,pc}
    $d
        0x0000c536:    0000        ..      DCW    0
    $t
    .text
    __scatterload
    __scatterload_rt2
        0x0000c538:    4c06        .L      LDR      r4,[pc,#24] ; [0xc554] = 0xe814
        0x0000c53a:    2501        .%      MOVS     r5,#1
        0x0000c53c:    4e06        .N      LDR      r6,[pc,#24] ; [0xc558] = 0xe834
        0x0000c53e:    e005        ..      B        0xc54c ; __scatterload + 20
        0x0000c540:    68e3        .h      LDR      r3,[r4,#0xc]
        0x0000c542:    cc07        ..      LDM      r4!,{r0-r2}
        0x0000c544:    432b        +C      ORRS     r3,r3,r5
        0x0000c546:    3c0c        .<      SUBS     r4,r4,#0xc
        0x0000c548:    4798        .G      BLX      r3
        0x0000c54a:    3410        .4      ADDS     r4,r4,#0x10
        0x0000c54c:    42b4        .B      CMP      r4,r6
        0x0000c54e:    d3f7        ..      BCC      0xc540 ; __scatterload + 8
        0x0000c550:    f7fffdba    ....    BL       __main_after_scatterload ; 0xc0c8
    $d
        0x0000c554:    0000e814    ....    DCD    59412
        0x0000c558:    0000e834    4...    DCD    59444
    $t
    .text
    __aeabi_llsl
    _ll_shift_l
        0x0000c55c:    b510        ..      PUSH     {r4,lr}
        0x0000c55e:    2a20         *      CMP      r2,#0x20
        0x0000c560:    db04        ..      BLT      0xc56c ; __aeabi_llsl + 16
        0x0000c562:    4601        .F      MOV      r1,r0
        0x0000c564:    3a20         :      SUBS     r2,r2,#0x20
        0x0000c566:    4091        .@      LSLS     r1,r1,r2
        0x0000c568:    2000        .       MOVS     r0,#0
        0x0000c56a:    bd10        ..      POP      {r4,pc}
        0x0000c56c:    4091        .@      LSLS     r1,r1,r2
        0x0000c56e:    2320         #      MOVS     r3,#0x20
        0x0000c570:    1a9c        ..      SUBS     r4,r3,r2
        0x0000c572:    4603        .F      MOV      r3,r0
        0x0000c574:    40e3        .@      LSRS     r3,r3,r4
        0x0000c576:    4319        .C      ORRS     r1,r1,r3
        0x0000c578:    4090        .@      LSLS     r0,r0,r2
        0x0000c57a:    bd10        ..      POP      {r4,pc}
    .text
    __aeabi_llsr
    _ll_ushift_r
        0x0000c57c:    b510        ..      PUSH     {r4,lr}
        0x0000c57e:    2a20         *      CMP      r2,#0x20
        0x0000c580:    db04        ..      BLT      0xc58c ; __aeabi_llsr + 16
        0x0000c582:    4608        .F      MOV      r0,r1
        0x0000c584:    3a20         :      SUBS     r2,r2,#0x20
        0x0000c586:    40d0        .@      LSRS     r0,r0,r2
        0x0000c588:    2100        .!      MOVS     r1,#0
        0x0000c58a:    bd10        ..      POP      {r4,pc}
        0x0000c58c:    460b        .F      MOV      r3,r1
        0x0000c58e:    40d3        .@      LSRS     r3,r3,r2
        0x0000c590:    40d0        .@      LSRS     r0,r0,r2
        0x0000c592:    2420         $      MOVS     r4,#0x20
        0x0000c594:    1aa2        ..      SUBS     r2,r4,r2
        0x0000c596:    4091        .@      LSLS     r1,r1,r2
        0x0000c598:    4308        .C      ORRS     r0,r0,r1
        0x0000c59a:    4619        .F      MOV      r1,r3
        0x0000c59c:    bd10        ..      POP      {r4,pc}
    .text
    __aeabi_lasr
    _ll_sshift_r
        0x0000c59e:    b510        ..      PUSH     {r4,lr}
        0x0000c5a0:    2a20         *      CMP      r2,#0x20
        0x0000c5a2:    db06        ..      BLT      0xc5b2 ; __aeabi_lasr + 20
        0x0000c5a4:    17cb        ..      ASRS     r3,r1,#31
        0x0000c5a6:    4608        .F      MOV      r0,r1
        0x0000c5a8:    3a20         :      SUBS     r2,r2,#0x20
        0x0000c5aa:    4110        .A      ASRS     r0,r0,r2
        0x0000c5ac:    17c1        ..      ASRS     r1,r0,#31
        0x0000c5ae:    430b        .C      ORRS     r3,r3,r1
        0x0000c5b0:    e006        ..      B        0xc5c0 ; __aeabi_lasr + 34
        0x0000c5b2:    460b        .F      MOV      r3,r1
        0x0000c5b4:    4113        .A      ASRS     r3,r3,r2
        0x0000c5b6:    40d0        .@      LSRS     r0,r0,r2
        0x0000c5b8:    2420         $      MOVS     r4,#0x20
        0x0000c5ba:    1aa2        ..      SUBS     r2,r4,r2
        0x0000c5bc:    4091        .@      LSLS     r1,r1,r2
        0x0000c5be:    4308        .C      ORRS     r0,r0,r1
        0x0000c5c0:    4619        .F      MOV      r1,r3
        0x0000c5c2:    bd10        ..      POP      {r4,pc}
    .text
    _double_round
        0x0000c5c4:    b510        ..      PUSH     {r4,lr}
        0x0000c5c6:    2b00        .+      CMP      r3,#0
        0x0000c5c8:    da08        ..      BGE      0xc5dc ; _double_round + 24
        0x0000c5ca:    2400        .$      MOVS     r4,#0
        0x0000c5cc:    1c40        @.      ADDS     r0,r0,#1
        0x0000c5ce:    4161        aA      ADCS     r1,r1,r4
        0x0000c5d0:    1892        ..      ADDS     r2,r2,r2
        0x0000c5d2:    415b        [A      ADCS     r3,r3,r3
        0x0000c5d4:    431a        .C      ORRS     r2,r2,r3
        0x0000c5d6:    d101        ..      BNE      0xc5dc ; _double_round + 24
        0x0000c5d8:    0840        @.      LSRS     r0,r0,#1
        0x0000c5da:    0040        @.      LSLS     r0,r0,#1
        0x0000c5dc:    bd10        ..      POP      {r4,pc}
    _double_epilogue
        0x0000c5de:    b5f0        ..      PUSH     {r4-r7,lr}
        0x0000c5e0:    b41f        ..      PUSH     {r0-r4}
        0x0000c5e2:    b082        ..      SUB      sp,sp,#8
        0x0000c5e4:    4605        .F      MOV      r5,r0
        0x0000c5e6:    000c        ..      MOVS     r4,r1
        0x0000c5e8:    d003        ..      BEQ      0xc5f2 ; _double_epilogue + 20
        0x0000c5ea:    4608        .F      MOV      r0,r1
        0x0000c5ec:    f001fbc0    ....    BL       __ARM_clz ; 0xdd70
        0x0000c5f0:    e002        ..      B        0xc5f8 ; _double_epilogue + 26
        0x0000c5f2:    f001fbbd    ....    BL       __ARM_clz ; 0xdd70
        0x0000c5f6:    3020         0      ADDS     r0,r0,#0x20
        0x0000c5f8:    4602        .F      MOV      r2,r0
        0x0000c5fa:    9000        ..      STR      r0,[sp,#0]
        0x0000c5fc:    4621        !F      MOV      r1,r4
        0x0000c5fe:    4628        (F      MOV      r0,r5
        0x0000c600:    f7ffffac    ....    BL       __aeabi_llsl ; 0xc55c
        0x0000c604:    9b04        ..      LDR      r3,[sp,#0x10]
        0x0000c606:    9a05        ..      LDR      r2,[sp,#0x14]
        0x0000c608:    4604        .F      MOV      r4,r0
        0x0000c60a:    460f        .F      MOV      r7,r1
        0x0000c60c:    4318        .C      ORRS     r0,r0,r3
        0x0000c60e:    4311        .C      ORRS     r1,r1,r2
        0x0000c610:    4308        .C      ORRS     r0,r0,r1
        0x0000c612:    d014        ..      BEQ      0xc63e ; _double_epilogue + 96
        0x0000c614:    4618        .F      MOV      r0,r3
        0x0000c616:    4310        .C      ORRS     r0,r0,r2
        0x0000c618:    d01b        ..      BEQ      0xc652 ; _double_epilogue + 116
        0x0000c61a:    9800        ..      LDR      r0,[sp,#0]
        0x0000c61c:    2140        @!      MOVS     r1,#0x40
        0x0000c61e:    1a0a        ..      SUBS     r2,r1,r0
        0x0000c620:    4618        .F      MOV      r0,r3
        0x0000c622:    9905        ..      LDR      r1,[sp,#0x14]
        0x0000c624:    f7ffffaa    ....    BL       __aeabi_llsr ; 0xc57c
        0x0000c628:    4605        .F      MOV      r5,r0
        0x0000c62a:    460e        .F      MOV      r6,r1
        0x0000c62c:    9a00        ..      LDR      r2,[sp,#0]
        0x0000c62e:    9905        ..      LDR      r1,[sp,#0x14]
        0x0000c630:    9804        ..      LDR      r0,[sp,#0x10]
        0x0000c632:    f7ffff93    ....    BL       __aeabi_llsl ; 0xc55c
        0x0000c636:    4308        .C      ORRS     r0,r0,r1
        0x0000c638:    d005        ..      BEQ      0xc646 ; _double_epilogue + 104
        0x0000c63a:    2001        .       MOVS     r0,#1
        0x0000c63c:    e004        ..      B        0xc648 ; _double_epilogue + 106
        0x0000c63e:    4620         F      MOV      r0,r4
        0x0000c640:    4639        9F      MOV      r1,r7
        0x0000c642:    b007        ..      ADD      sp,sp,#0x1c
        0x0000c644:    bdf0        ..      POP      {r4-r7,pc}
        0x0000c646:    2000        .       MOVS     r0,#0
        0x0000c648:    17c1        ..      ASRS     r1,r0,#31
        0x0000c64a:    4305        .C      ORRS     r5,r5,r0
        0x0000c64c:    430e        .C      ORRS     r6,r6,r1
        0x0000c64e:    432c        ,C      ORRS     r4,r4,r5
        0x0000c650:    4337        7C      ORRS     r7,r7,r6
        0x0000c652:    9900        ..      LDR      r1,[sp,#0]
        0x0000c654:    980e        ..      LDR      r0,[sp,#0x38]
        0x0000c656:    0563        c.      LSLS     r3,r4,#21
        0x0000c658:    1a40        @.      SUBS     r0,r0,r1
        0x0000c65a:    0579        y.      LSLS     r1,r7,#21
        0x0000c65c:    0ae4        ..      LSRS     r4,r4,#11
        0x0000c65e:    2200        ."      MOVS     r2,#0
        0x0000c660:    430c        .C      ORRS     r4,r4,r1
        0x0000c662:    0afd        ..      LSRS     r5,r7,#11
        0x0000c664:    300a        .0      ADDS     r0,r0,#0xa
        0x0000c666:    d502        ..      BPL      0xc66e ; _double_epilogue + 144
        0x0000c668:    2000        .       MOVS     r0,#0
        0x0000c66a:    4601        .F      MOV      r1,r0
        0x0000c66c:    e7e9        ..      B        0xc642 ; _double_epilogue + 100
        0x0000c66e:    0501        ..      LSLS     r1,r0,#20
        0x0000c670:    1910        ..      ADDS     r0,r2,r4
        0x0000c672:    4169        iA      ADCS     r1,r1,r5
        0x0000c674:    9c0c        ..      LDR      r4,[sp,#0x30]
        0x0000c676:    9d0d        ..      LDR      r5,[sp,#0x34]
        0x0000c678:    1900        ..      ADDS     r0,r0,r4
        0x0000c67a:    4169        iA      ADCS     r1,r1,r5
        0x0000c67c:    f7ffffa2    ....    BL       _double_round ; 0xc5c4
        0x0000c680:    e7df        ..      B        0xc642 ; _double_epilogue + 100
    $t.3
    BL_CalCheckSum
        0x0000c682:    b084        ..      SUB      sp,sp,#0x10
        0x0000c684:    460a        .F      MOV      r2,r1
        0x0000c686:    9003        ..      STR      r0,[sp,#0xc]
        0x0000c688:    a802        ..      ADD      r0,sp,#8
        0x0000c68a:    7001        .p      STRB     r1,[r0,#0]
        0x0000c68c:    2000        .       MOVS     r0,#0
        0x0000c68e:    9001        ..      STR      r0,[sp,#4]
        0x0000c690:    4669        iF      MOV      r1,sp
        0x0000c692:    7008        .p      STRB     r0,[r1,#0]
        0x0000c694:    e7ff        ..      B        0xc696 ; BL_CalCheckSum + 20
        0x0000c696:    4668        hF      MOV      r0,sp
        0x0000c698:    7800        .x      LDRB     r0,[r0,#0]
        0x0000c69a:    a902        ..      ADD      r1,sp,#8
        0x0000c69c:    7809        .x      LDRB     r1,[r1,#0]
        0x0000c69e:    4288        .B      CMP      r0,r1
        0x0000c6a0:    da0d        ..      BGE      0xc6be ; BL_CalCheckSum + 60
        0x0000c6a2:    e7ff        ..      B        0xc6a4 ; BL_CalCheckSum + 34
        0x0000c6a4:    9803        ..      LDR      r0,[sp,#0xc]
        0x0000c6a6:    4669        iF      MOV      r1,sp
        0x0000c6a8:    7809        .x      LDRB     r1,[r1,#0]
        0x0000c6aa:    5c40        @\      LDRB     r0,[r0,r1]
        0x0000c6ac:    9901        ..      LDR      r1,[sp,#4]
        0x0000c6ae:    1808        ..      ADDS     r0,r1,r0
        0x0000c6b0:    9001        ..      STR      r0,[sp,#4]
        0x0000c6b2:    e7ff        ..      B        0xc6b4 ; BL_CalCheckSum + 50
        0x0000c6b4:    9800        ..      LDR      r0,[sp,#0]
        0x0000c6b6:    1c40        @.      ADDS     r0,r0,#1
        0x0000c6b8:    4669        iF      MOV      r1,sp
        0x0000c6ba:    7008        .p      STRB     r0,[r1,#0]
        0x0000c6bc:    e7eb        ..      B        0xc696 ; BL_CalCheckSum + 20
        0x0000c6be:    9801        ..      LDR      r0,[sp,#4]
        0x0000c6c0:    b004        ..      ADD      sp,sp,#0x10
        0x0000c6c2:    4770        pG      BX       lr
    BL_Cmd_Mem_Write_Handle
        0x0000c6c4:    b580        ..      PUSH     {r7,lr}
        0x0000c6c6:    b084        ..      SUB      sp,sp,#0x10
        0x0000c6c8:    9003        ..      STR      r0,[sp,#0xc]
        0x0000c6ca:    9803        ..      LDR      r0,[sp,#0xc]
        0x0000c6cc:    7800        .x      LDRB     r0,[r0,#0]
        0x0000c6ce:    1c40        @.      ADDS     r0,r0,#1
        0x0000c6d0:    a902        ..      ADD      r1,sp,#8
        0x0000c6d2:    7008        .p      STRB     r0,[r1,#0]
        0x0000c6d4:    9803        ..      LDR      r0,[sp,#0xc]
        0x0000c6d6:    7942        By      LDRB     r2,[r0,#5]
        0x0000c6d8:    0612        ..      LSLS     r2,r2,#24
        0x0000c6da:    7903        .y      LDRB     r3,[r0,#4]
        0x0000c6dc:    041b        ..      LSLS     r3,r3,#16
        0x0000c6de:    18d2        ..      ADDS     r2,r2,r3
        0x0000c6e0:    78c3        .x      LDRB     r3,[r0,#3]
        0x0000c6e2:    021b        ..      LSLS     r3,r3,#8
        0x0000c6e4:    18d2        ..      ADDS     r2,r2,r3
        0x0000c6e6:    7880        .x      LDRB     r0,[r0,#2]
        0x0000c6e8:    1810        ..      ADDS     r0,r2,r0
        0x0000c6ea:    9001        ..      STR      r0,[sp,#4]
        0x0000c6ec:    9803        ..      LDR      r0,[sp,#0xc]
        0x0000c6ee:    7809        .x      LDRB     r1,[r1,#0]
        0x0000c6f0:    1840        @.      ADDS     r0,r0,r1
        0x0000c6f2:    1e41        A.      SUBS     r1,r0,#1
        0x0000c6f4:    7809        .x      LDRB     r1,[r1,#0]
        0x0000c6f6:    0609        ..      LSLS     r1,r1,#24
        0x0000c6f8:    1e82        ..      SUBS     r2,r0,#2
        0x0000c6fa:    7812        .x      LDRB     r2,[r2,#0]
        0x0000c6fc:    0412        ..      LSLS     r2,r2,#16
        0x0000c6fe:    1889        ..      ADDS     r1,r1,r2
        0x0000c700:    1ec2        ..      SUBS     r2,r0,#3
        0x0000c702:    7812        .x      LDRB     r2,[r2,#0]
        0x0000c704:    0212        ..      LSLS     r2,r2,#8
        0x0000c706:    1889        ..      ADDS     r1,r1,r2
        0x0000c708:    1f00        ..      SUBS     r0,r0,#4
        0x0000c70a:    7800        .x      LDRB     r0,[r0,#0]
        0x0000c70c:    1808        ..      ADDS     r0,r1,r0
        0x0000c70e:    9000        ..      STR      r0,[sp,#0]
        0x0000c710:    9803        ..      LDR      r0,[sp,#0xc]
        0x0000c712:    1d80        ..      ADDS     r0,r0,#6
        0x0000c714:    9902        ..      LDR      r1,[sp,#8]
        0x0000c716:    390a        .9      SUBS     r1,r1,#0xa
        0x0000c718:    b2c9        ..      UXTB     r1,r1
        0x0000c71a:    f7ffffb2    ....    BL       BL_CalCheckSum ; 0xc682
        0x0000c71e:    9900        ..      LDR      r1,[sp,#0]
        0x0000c720:    4288        .B      CMP      r0,r1
        0x0000c722:    d109        ..      BNE      0xc738 ; BL_Cmd_Mem_Write_Handle + 116
        0x0000c724:    e7ff        ..      B        0xc726 ; BL_Cmd_Mem_Write_Handle + 98
        0x0000c726:    9801        ..      LDR      r0,[sp,#4]
        0x0000c728:    9903        ..      LDR      r1,[sp,#0xc]
        0x0000c72a:    1d89        ..      ADDS     r1,r1,#6
        0x0000c72c:    9a02        ..      LDR      r2,[sp,#8]
        0x0000c72e:    3a0a        .:      SUBS     r2,r2,#0xa
        0x0000c730:    b2d2        ..      UXTB     r2,r2
        0x0000c732:    f000f881    ....    BL       BL_Mem_Write ; 0xc838
        0x0000c736:    e7ff        ..      B        0xc738 ; BL_Cmd_Mem_Write_Handle + 116
        0x0000c738:    b004        ..      ADD      sp,sp,#0x10
        0x0000c73a:    bd80        ..      POP      {r7,pc}
    BL_Cmd_Update_Firmware_Handle
        0x0000c73c:    b580        ..      PUSH     {r7,lr}
        0x0000c73e:    b08c        ..      SUB      sp,sp,#0x30
        0x0000c740:    900a        ..      STR      r0,[sp,#0x28]
        0x0000c742:    2000        .       MOVS     r0,#0
        0x0000c744:    9009        ..      STR      r0,[sp,#0x24]
        0x0000c746:    9008        ..      STR      r0,[sp,#0x20]
        0x0000c748:    9007        ..      STR      r0,[sp,#0x1c]
        0x0000c74a:    9006        ..      STR      r0,[sp,#0x18]
        0x0000c74c:    9005        ..      STR      r0,[sp,#0x14]
        0x0000c74e:    9004        ..      STR      r0,[sp,#0x10]
        0x0000c750:    4838        8H      LDR      r0,[pc,#224] ; [0xc834] = 0x5000c000
        0x0000c752:    6801        .h      LDR      r1,[r0,#0]
        0x0000c754:    2201        ."      MOVS     r2,#1
        0x0000c756:    4311        .C      ORRS     r1,r1,r2
        0x0000c758:    6001        .`      STR      r1,[r0,#0]
        0x0000c75a:    2007        .       MOVS     r0,#7
        0x0000c75c:    0380        ..      LSLS     r0,r0,#14
        0x0000c75e:    f000fded    ....    BL       FMC_Read ; 0xd33c
        0x0000c762:    9009        ..      STR      r0,[sp,#0x24]
        0x0000c764:    48df        .H      LDR      r0,[pc,#892] ; [0xcae4] = 0x1c004
        0x0000c766:    f000fde9    ....    BL       FMC_Read ; 0xd33c
        0x0000c76a:    9008        ..      STR      r0,[sp,#0x20]
        0x0000c76c:    48df        .H      LDR      r0,[pc,#892] ; [0xcaec] = 0x1c008
        0x0000c76e:    f000fde5    ....    BL       FMC_Read ; 0xd33c
        0x0000c772:    9007        ..      STR      r0,[sp,#0x1c]
        0x0000c774:    9809        ..      LDR      r0,[sp,#0x24]
        0x0000c776:    9006        ..      STR      r0,[sp,#0x18]
        0x0000c778:    9808        ..      LDR      r0,[sp,#0x20]
        0x0000c77a:    9005        ..      STR      r0,[sp,#0x14]
        0x0000c77c:    9807        ..      LDR      r0,[sp,#0x1c]
        0x0000c77e:    9004        ..      STR      r0,[sp,#0x10]
        0x0000c780:    980a        ..      LDR      r0,[sp,#0x28]
        0x0000c782:    2800        .(      CMP      r0,#0
        0x0000c784:    d104        ..      BNE      0xc790 ; BL_Cmd_Update_Firmware_Handle + 84
        0x0000c786:    e7ff        ..      B        0xc788 ; BL_Cmd_Update_Firmware_Handle + 76
        0x0000c788:    2001        .       MOVS     r0,#1
        0x0000c78a:    9008        ..      STR      r0,[sp,#0x20]
        0x0000c78c:    9009        ..      STR      r0,[sp,#0x24]
        0x0000c78e:    e00b        ..      B        0xc7a8 ; BL_Cmd_Update_Firmware_Handle + 108
        0x0000c790:    980a        ..      LDR      r0,[sp,#0x28]
        0x0000c792:    2103        .!      MOVS     r1,#3
        0x0000c794:    03c9        ..      LSLS     r1,r1,#15
        0x0000c796:    4288        .B      CMP      r0,r1
        0x0000c798:    d105        ..      BNE      0xc7a6 ; BL_Cmd_Update_Firmware_Handle + 106
        0x0000c79a:    e7ff        ..      B        0xc79c ; BL_Cmd_Update_Firmware_Handle + 96
        0x0000c79c:    2001        .       MOVS     r0,#1
        0x0000c79e:    9007        ..      STR      r0,[sp,#0x1c]
        0x0000c7a0:    2002        .       MOVS     r0,#2
        0x0000c7a2:    9009        ..      STR      r0,[sp,#0x24]
        0x0000c7a4:    e7ff        ..      B        0xc7a6 ; BL_Cmd_Update_Firmware_Handle + 106
        0x0000c7a6:    e7ff        ..      B        0xc7a8 ; BL_Cmd_Update_Firmware_Handle + 108
        0x0000c7a8:    9808        ..      LDR      r0,[sp,#0x20]
        0x0000c7aa:    9905        ..      LDR      r1,[sp,#0x14]
        0x0000c7ac:    4288        .B      CMP      r0,r1
        0x0000c7ae:    d10a        ..      BNE      0xc7c6 ; BL_Cmd_Update_Firmware_Handle + 138
        0x0000c7b0:    e7ff        ..      B        0xc7b2 ; BL_Cmd_Update_Firmware_Handle + 118
        0x0000c7b2:    9807        ..      LDR      r0,[sp,#0x1c]
        0x0000c7b4:    9904        ..      LDR      r1,[sp,#0x10]
        0x0000c7b6:    4288        .B      CMP      r0,r1
        0x0000c7b8:    d105        ..      BNE      0xc7c6 ; BL_Cmd_Update_Firmware_Handle + 138
        0x0000c7ba:    e7ff        ..      B        0xc7bc ; BL_Cmd_Update_Firmware_Handle + 128
        0x0000c7bc:    9809        ..      LDR      r0,[sp,#0x24]
        0x0000c7be:    9906        ..      LDR      r1,[sp,#0x18]
        0x0000c7c0:    4288        .B      CMP      r0,r1
        0x0000c7c2:    d014        ..      BEQ      0xc7ee ; BL_Cmd_Update_Firmware_Handle + 178
        0x0000c7c4:    e7ff        ..      B        0xc7c6 ; BL_Cmd_Update_Firmware_Handle + 138
        0x0000c7c6:    2007        .       MOVS     r0,#7
        0x0000c7c8:    0380        ..      LSLS     r0,r0,#14
        0x0000c7ca:    9002        ..      STR      r0,[sp,#8]
        0x0000c7cc:    f000fd84    ....    BL       FMC_Erase ; 0xd2d8
        0x0000c7d0:    9909        ..      LDR      r1,[sp,#0x24]
        0x0000c7d2:    9a02        ..      LDR      r2,[sp,#8]
        0x0000c7d4:    9001        ..      STR      r0,[sp,#4]
        0x0000c7d6:    4610        .F      MOV      r0,r2
        0x0000c7d8:    f000fdde    ....    BL       FMC_Write ; 0xd398
        0x0000c7dc:    9908        ..      LDR      r1,[sp,#0x20]
        0x0000c7de:    48c1        .H      LDR      r0,[pc,#772] ; [0xcae4] = 0x1c004
        0x0000c7e0:    f000fdda    ....    BL       FMC_Write ; 0xd398
        0x0000c7e4:    9907        ..      LDR      r1,[sp,#0x1c]
        0x0000c7e6:    48c1        .H      LDR      r0,[pc,#772] ; [0xcaec] = 0x1c008
        0x0000c7e8:    f000fdd6    ....    BL       FMC_Write ; 0xd398
        0x0000c7ec:    e7ff        ..      B        0xc7ee ; BL_Cmd_Update_Firmware_Handle + 178
        0x0000c7ee:    2000        .       MOVS     r0,#0
        0x0000c7f0:    43c1        .C      MVNS     r1,r0
        0x0000c7f2:    4a09        .J      LDR      r2,[pc,#36] ; [0xc818] = 0x5000000c
        0x0000c7f4:    6011        .`      STR      r1,[r2,#0]
        0x0000c7f6:    6010        .`      STR      r0,[r2,#0]
        0x0000c7f8:    980a        ..      LDR      r0,[sp,#0x28]
        0x0000c7fa:    f000fdb7    ....    BL       FMC_SetVectorPageAddr ; 0xd36c
        0x0000c7fe:    980a        ..      LDR      r0,[sp,#0x28]
        0x0000c800:    6840        @h      LDR      r0,[r0,#4]
        0x0000c802:    4906        .I      LDR      r1,[pc,#24] ; [0xc81c] = 0x200000fc
        0x0000c804:    6008        .`      STR      r0,[r1,#0]
        0x0000c806:    980a        ..      LDR      r0,[sp,#0x28]
        0x0000c808:    900b        ..      STR      r0,[sp,#0x2c]
        0x0000c80a:    980b        ..      LDR      r0,[sp,#0x2c]
        0x0000c80c:    f3808808    ....    MSR      MSP,r0
        0x0000c810:    6808        .h      LDR      r0,[r1,#0]
        0x0000c812:    4780        .G      BLX      r0
        0x0000c814:    b00c        ..      ADD      sp,sp,#0x30
        0x0000c816:    bd80        ..      POP      {r7,pc}
    $d.11
    __arm_cp.6_3
        0x0000c818:    5000000c    ...P    DCD    1342177292
    __arm_cp.6_4
        0x0000c81c:    200000fc    ...     DCD    536871164
    $t.16
    BL_Enable_APROM_Update
        0x0000c820:    b580        ..      PUSH     {r7,lr}
        0x0000c822:    f000fd83    ....    BL       FMC_Open ; 0xd32c
        0x0000c826:    4803        .H      LDR      r0,[pc,#12] ; [0xc834] = 0x5000c000
        0x0000c828:    6801        .h      LDR      r1,[r0,#0]
        0x0000c82a:    2208        ."      MOVS     r2,#8
        0x0000c82c:    4311        .C      ORRS     r1,r1,r2
        0x0000c82e:    6001        .`      STR      r1,[r0,#0]
        0x0000c830:    bd80        ..      POP      {r7,pc}
        0x0000c832:    46c0        .F      MOV      r8,r8
    $d.17
    __arm_cp.9_0
        0x0000c834:    5000c000    ...P    DCD    1342226432
    $t.4
    BL_Mem_Write
        0x0000c838:    b5b0        ..      PUSH     {r4,r5,r7,lr}
        0x0000c83a:    b08c        ..      SUB      sp,sp,#0x30
        0x0000c83c:    4613        .F      MOV      r3,r2
        0x0000c83e:    900b        ..      STR      r0,[sp,#0x2c]
        0x0000c840:    910a        ..      STR      r1,[sp,#0x28]
        0x0000c842:    a809        ..      ADD      r0,sp,#0x24
        0x0000c844:    7002        .p      STRB     r2,[r0,#0]
        0x0000c846:    2000        .       MOVS     r0,#0
        0x0000c848:    9008        ..      STR      r0,[sp,#0x20]
        0x0000c84a:    481e        .H      LDR      r0,[pc,#120] ; [0xc8c4] = 0x20000030
        0x0000c84c:    7800        .x      LDRB     r0,[r0,#0]
        0x0000c84e:    2800        .(      CMP      r0,#0
        0x0000c850:    d104        ..      BNE      0xc85c ; BL_Mem_Write + 36
        0x0000c852:    e7ff        ..      B        0xc854 ; BL_Mem_Write + 28
        0x0000c854:    980b        ..      LDR      r0,[sp,#0x2c]
        0x0000c856:    f000fd3f    ..?.    BL       FMC_Erase ; 0xd2d8
        0x0000c85a:    e7ff        ..      B        0xc85c ; BL_Mem_Write + 36
        0x0000c85c:    4819        .H      LDR      r0,[pc,#100] ; [0xc8c4] = 0x20000030
        0x0000c85e:    7801        .x      LDRB     r1,[r0,#0]
        0x0000c860:    1c49        I.      ADDS     r1,r1,#1
        0x0000c862:    2203        ."      MOVS     r2,#3
        0x0000c864:    4011        .@      ANDS     r1,r1,r2
        0x0000c866:    7001        .p      STRB     r1,[r0,#0]
        0x0000c868:    a809        ..      ADD      r0,sp,#0x24
        0x0000c86a:    7800        .x      LDRB     r0,[r0,#0]
        0x0000c86c:    0880        ..      LSRS     r0,r0,#2
        0x0000c86e:    a902        ..      ADD      r1,sp,#8
        0x0000c870:    7008        .p      STRB     r0,[r1,#0]
        0x0000c872:    a801        ..      ADD      r0,sp,#4
        0x0000c874:    2100        .!      MOVS     r1,#0
        0x0000c876:    7001        .p      STRB     r1,[r0,#0]
        0x0000c878:    e7ff        ..      B        0xc87a ; BL_Mem_Write + 66
        0x0000c87a:    a801        ..      ADD      r0,sp,#4
        0x0000c87c:    7800        .x      LDRB     r0,[r0,#0]
        0x0000c87e:    a909        ..      ADD      r1,sp,#0x24
        0x0000c880:    7809        .x      LDRB     r1,[r1,#0]
        0x0000c882:    4288        .B      CMP      r0,r1
        0x0000c884:    da1b        ..      BGE      0xc8be ; BL_Mem_Write + 134
        0x0000c886:    e7ff        ..      B        0xc888 ; BL_Mem_Write + 80
        0x0000c888:    980a        ..      LDR      r0,[sp,#0x28]
        0x0000c88a:    a901        ..      ADD      r1,sp,#4
        0x0000c88c:    780a        .x      LDRB     r2,[r1,#0]
        0x0000c88e:    1883        ..      ADDS     r3,r0,r2
        0x0000c890:    78dc        .x      LDRB     r4,[r3,#3]
        0x0000c892:    0624        $.      LSLS     r4,r4,#24
        0x0000c894:    789d        .x      LDRB     r5,[r3,#2]
        0x0000c896:    042d        -.      LSLS     r5,r5,#16
        0x0000c898:    1964        d.      ADDS     r4,r4,r5
        0x0000c89a:    785b        [x      LDRB     r3,[r3,#1]
        0x0000c89c:    021b        ..      LSLS     r3,r3,#8
        0x0000c89e:    18e3        ..      ADDS     r3,r4,r3
        0x0000c8a0:    5c80        .\      LDRB     r0,[r0,r2]
        0x0000c8a2:    1818        ..      ADDS     r0,r3,r0
        0x0000c8a4:    9008        ..      STR      r0,[sp,#0x20]
        0x0000c8a6:    980b        ..      LDR      r0,[sp,#0x2c]
        0x0000c8a8:    7809        .x      LDRB     r1,[r1,#0]
        0x0000c8aa:    1840        @.      ADDS     r0,r0,r1
        0x0000c8ac:    9908        ..      LDR      r1,[sp,#0x20]
        0x0000c8ae:    f000fd73    ..s.    BL       FMC_Write ; 0xd398
        0x0000c8b2:    e7ff        ..      B        0xc8b4 ; BL_Mem_Write + 124
        0x0000c8b4:    9801        ..      LDR      r0,[sp,#4]
        0x0000c8b6:    1d00        ..      ADDS     r0,r0,#4
        0x0000c8b8:    a901        ..      ADD      r1,sp,#4
        0x0000c8ba:    7008        .p      STRB     r0,[r1,#0]
        0x0000c8bc:    e7dd        ..      B        0xc87a ; BL_Mem_Write + 66
        0x0000c8be:    b00c        ..      ADD      sp,sp,#0x30
        0x0000c8c0:    bdb0        ..      POP      {r4,r5,r7,pc}
        0x0000c8c2:    46c0        .F      MOV      r8,r8
    $d.5
    __arm_cp.3_0
        0x0000c8c4:    20000030    0..     DCD    536870960
    $t.18
    BL_PreProcess
        0x0000c8c8:    b580        ..      PUSH     {r7,lr}
        0x0000c8ca:    b08a        ..      SUB      sp,sp,#0x28
        0x0000c8cc:    2000        .       MOVS     r0,#0
        0x0000c8ce:    9009        ..      STR      r0,[sp,#0x24]
        0x0000c8d0:    9008        ..      STR      r0,[sp,#0x20]
        0x0000c8d2:    9007        ..      STR      r0,[sp,#0x1c]
        0x0000c8d4:    9006        ..      STR      r0,[sp,#0x18]
        0x0000c8d6:    9005        ..      STR      r0,[sp,#0x14]
        0x0000c8d8:    2007        .       MOVS     r0,#7
        0x0000c8da:    0380        ..      LSLS     r0,r0,#14
        0x0000c8dc:    f000fd2e    ....    BL       FMC_Read ; 0xd33c
        0x0000c8e0:    497f        .I      LDR      r1,[pc,#508] ; [0xcae0] = 0x20000110
        0x0000c8e2:    6008        .`      STR      r0,[r1,#0]
        0x0000c8e4:    487f        .H      LDR      r0,[pc,#508] ; [0xcae4] = 0x1c004
        0x0000c8e6:    9104        ..      STR      r1,[sp,#0x10]
        0x0000c8e8:    f000fd28    ..(.    BL       FMC_Read ; 0xd33c
        0x0000c8ec:    497e        ~I      LDR      r1,[pc,#504] ; [0xcae8] = 0x20000108
        0x0000c8ee:    6008        .`      STR      r0,[r1,#0]
        0x0000c8f0:    487e        ~H      LDR      r0,[pc,#504] ; [0xcaec] = 0x1c008
        0x0000c8f2:    9103        ..      STR      r1,[sp,#0xc]
        0x0000c8f4:    f000fd22    ..".    BL       FMC_Read ; 0xd33c
        0x0000c8f8:    497d        }I      LDR      r1,[pc,#500] ; [0xcaf0] = 0x2000010c
        0x0000c8fa:    6008        .`      STR      r0,[r1,#0]
        0x0000c8fc:    9804        ..      LDR      r0,[sp,#0x10]
        0x0000c8fe:    6802        .h      LDR      r2,[r0,#0]
        0x0000c900:    9207        ..      STR      r2,[sp,#0x1c]
        0x0000c902:    9a03        ..      LDR      r2,[sp,#0xc]
        0x0000c904:    6813        .h      LDR      r3,[r2,#0]
        0x0000c906:    9306        ..      STR      r3,[sp,#0x18]
        0x0000c908:    6809        .h      LDR      r1,[r1,#0]
        0x0000c90a:    9105        ..      STR      r1,[sp,#0x14]
        0x0000c90c:    6801        .h      LDR      r1,[r0,#0]
        0x0000c90e:    2965        e)      CMP      r1,#0x65
        0x0000c910:    d304        ..      BCC      0xc91c ; BL_PreProcess + 84
        0x0000c912:    e7ff        ..      B        0xc914 ; BL_PreProcess + 76
        0x0000c914:    4872        rH      LDR      r0,[pc,#456] ; [0xcae0] = 0x20000110
        0x0000c916:    2100        .!      MOVS     r1,#0
        0x0000c918:    6001        .`      STR      r1,[r0,#0]
        0x0000c91a:    e7ff        ..      B        0xc91c ; BL_PreProcess + 84
        0x0000c91c:    4872        rH      LDR      r0,[pc,#456] ; [0xcae8] = 0x20000108
        0x0000c91e:    6800        .h      LDR      r0,[r0,#0]
        0x0000c920:    2865        e(      CMP      r0,#0x65
        0x0000c922:    d304        ..      BCC      0xc92e ; BL_PreProcess + 102
        0x0000c924:    e7ff        ..      B        0xc926 ; BL_PreProcess + 94
        0x0000c926:    4870        pH      LDR      r0,[pc,#448] ; [0xcae8] = 0x20000108
        0x0000c928:    2100        .!      MOVS     r1,#0
        0x0000c92a:    6001        .`      STR      r1,[r0,#0]
        0x0000c92c:    e7ff        ..      B        0xc92e ; BL_PreProcess + 102
        0x0000c92e:    4870        pH      LDR      r0,[pc,#448] ; [0xcaf0] = 0x2000010c
        0x0000c930:    6800        .h      LDR      r0,[r0,#0]
        0x0000c932:    2865        e(      CMP      r0,#0x65
        0x0000c934:    d304        ..      BCC      0xc940 ; BL_PreProcess + 120
        0x0000c936:    e7ff        ..      B        0xc938 ; BL_PreProcess + 112
        0x0000c938:    486d        mH      LDR      r0,[pc,#436] ; [0xcaf0] = 0x2000010c
        0x0000c93a:    2100        .!      MOVS     r1,#0
        0x0000c93c:    6001        .`      STR      r1,[r0,#0]
        0x0000c93e:    e7ff        ..      B        0xc940 ; BL_PreProcess + 120
        0x0000c940:    2001        .       MOVS     r0,#1
        0x0000c942:    0240        @.      LSLS     r0,r0,#9
        0x0000c944:    f000fcfa    ....    BL       FMC_Read ; 0xd33c
        0x0000c948:    9009        ..      STR      r0,[sp,#0x24]
        0x0000c94a:    20c1        .       MOVS     r0,#0xc1
        0x0000c94c:    0240        @.      LSLS     r0,r0,#9
        0x0000c94e:    f000fcf5    ....    BL       FMC_Read ; 0xd33c
        0x0000c952:    9008        ..      STR      r0,[sp,#0x20]
        0x0000c954:    9809        ..      LDR      r0,[sp,#0x24]
        0x0000c956:    1c40        @.      ADDS     r0,r0,#1
        0x0000c958:    2800        .(      CMP      r0,#0
        0x0000c95a:    d009        ..      BEQ      0xc970 ; BL_PreProcess + 168
        0x0000c95c:    e7ff        ..      B        0xc95e ; BL_PreProcess + 150
        0x0000c95e:    4862        bH      LDR      r0,[pc,#392] ; [0xcae8] = 0x20000108
        0x0000c960:    6800        .h      LDR      r0,[r0,#0]
        0x0000c962:    2802        .(      CMP      r0,#2
        0x0000c964:    d004        ..      BEQ      0xc970 ; BL_PreProcess + 168
        0x0000c966:    e7ff        ..      B        0xc968 ; BL_PreProcess + 160
        0x0000c968:    485f        _H      LDR      r0,[pc,#380] ; [0xcae8] = 0x20000108
        0x0000c96a:    2101        .!      MOVS     r1,#1
        0x0000c96c:    6001        .`      STR      r1,[r0,#0]
        0x0000c96e:    e009        ..      B        0xc984 ; BL_PreProcess + 188
        0x0000c970:    9809        ..      LDR      r0,[sp,#0x24]
        0x0000c972:    1c40        @.      ADDS     r0,r0,#1
        0x0000c974:    2800        .(      CMP      r0,#0
        0x0000c976:    d104        ..      BNE      0xc982 ; BL_PreProcess + 186
        0x0000c978:    e7ff        ..      B        0xc97a ; BL_PreProcess + 178
        0x0000c97a:    485b        [H      LDR      r0,[pc,#364] ; [0xcae8] = 0x20000108
        0x0000c97c:    2100        .!      MOVS     r1,#0
        0x0000c97e:    6001        .`      STR      r1,[r0,#0]
        0x0000c980:    e7ff        ..      B        0xc982 ; BL_PreProcess + 186
        0x0000c982:    e7ff        ..      B        0xc984 ; BL_PreProcess + 188
        0x0000c984:    9808        ..      LDR      r0,[sp,#0x20]
        0x0000c986:    1c40        @.      ADDS     r0,r0,#1
        0x0000c988:    2800        .(      CMP      r0,#0
        0x0000c98a:    d009        ..      BEQ      0xc9a0 ; BL_PreProcess + 216
        0x0000c98c:    e7ff        ..      B        0xc98e ; BL_PreProcess + 198
        0x0000c98e:    4858        XH      LDR      r0,[pc,#352] ; [0xcaf0] = 0x2000010c
        0x0000c990:    6800        .h      LDR      r0,[r0,#0]
        0x0000c992:    2802        .(      CMP      r0,#2
        0x0000c994:    d004        ..      BEQ      0xc9a0 ; BL_PreProcess + 216
        0x0000c996:    e7ff        ..      B        0xc998 ; BL_PreProcess + 208
        0x0000c998:    4855        UH      LDR      r0,[pc,#340] ; [0xcaf0] = 0x2000010c
        0x0000c99a:    2101        .!      MOVS     r1,#1
        0x0000c99c:    6001        .`      STR      r1,[r0,#0]
        0x0000c99e:    e009        ..      B        0xc9b4 ; BL_PreProcess + 236
        0x0000c9a0:    9808        ..      LDR      r0,[sp,#0x20]
        0x0000c9a2:    1c40        @.      ADDS     r0,r0,#1
        0x0000c9a4:    2800        .(      CMP      r0,#0
        0x0000c9a6:    d104        ..      BNE      0xc9b2 ; BL_PreProcess + 234
        0x0000c9a8:    e7ff        ..      B        0xc9aa ; BL_PreProcess + 226
        0x0000c9aa:    4851        QH      LDR      r0,[pc,#324] ; [0xcaf0] = 0x2000010c
        0x0000c9ac:    2100        .!      MOVS     r1,#0
        0x0000c9ae:    6001        .`      STR      r1,[r0,#0]
        0x0000c9b0:    e7ff        ..      B        0xc9b2 ; BL_PreProcess + 234
        0x0000c9b2:    e7ff        ..      B        0xc9b4 ; BL_PreProcess + 236
        0x0000c9b4:    484f        OH      LDR      r0,[pc,#316] ; [0xcaf4] = 0x50004200
        0x0000c9b6:    6800        .h      LDR      r0,[r0,#0]
        0x0000c9b8:    2800        .(      CMP      r0,#0
        0x0000c9ba:    d109        ..      BNE      0xc9d0 ; BL_PreProcess + 264
        0x0000c9bc:    e7ff        ..      B        0xc9be ; BL_PreProcess + 246
        0x0000c9be:    484e        NH      LDR      r0,[pc,#312] ; [0xcaf8] = 0x20000104
        0x0000c9c0:    2101        .!      MOVS     r1,#1
        0x0000c9c2:    7001        .p      STRB     r1,[r0,#0]
        0x0000c9c4:    494d        MI      LDR      r1,[pc,#308] ; [0xcafc] = 0xe712
        0x0000c9c6:    487e        ~H      LDR      r0,[pc,#504] ; [0xcbc0] = 0x40150000
        0x0000c9c8:    220e        ."      MOVS     r2,#0xe
        0x0000c9ca:    f001f916    ....    BL       bsp_nuc220x_UART_send_data ; 0xdbfa
        0x0000c9ce:    e7ff        ..      B        0xc9d0 ; BL_PreProcess + 264
        0x0000c9d0:    4849        IH      LDR      r0,[pc,#292] ; [0xcaf8] = 0x20000104
        0x0000c9d2:    7800        .x      LDRB     r0,[r0,#0]
        0x0000c9d4:    2800        .(      CMP      r0,#0
        0x0000c9d6:    d000        ..      BEQ      0xc9da ; BL_PreProcess + 274
        0x0000c9d8:    e080        ..      B        0xcadc ; BL_PreProcess + 532
        0x0000c9da:    4949        II      LDR      r1,[pc,#292] ; [0xcb00] = 0xe720
        0x0000c9dc:    4878        xH      LDR      r0,[pc,#480] ; [0xcbc0] = 0x40150000
        0x0000c9de:    220e        ."      MOVS     r2,#0xe
        0x0000c9e0:    f001f90b    ....    BL       bsp_nuc220x_UART_send_data ; 0xdbfa
        0x0000c9e4:    4842        BH      LDR      r0,[pc,#264] ; [0xcaf0] = 0x2000010c
        0x0000c9e6:    6800        .h      LDR      r0,[r0,#0]
        0x0000c9e8:    2801        .(      CMP      r0,#1
        0x0000c9ea:    d109        ..      BNE      0xca00 ; BL_PreProcess + 312
        0x0000c9ec:    e7ff        ..      B        0xc9ee ; BL_PreProcess + 294
        0x0000c9ee:    4945        EI      LDR      r1,[pc,#276] ; [0xcb04] = 0xe763
        0x0000c9f0:    4873        sH      LDR      r0,[pc,#460] ; [0xcbc0] = 0x40150000
        0x0000c9f2:    2208        ."      MOVS     r2,#8
        0x0000c9f4:    f001f901    ....    BL       bsp_nuc220x_UART_send_data ; 0xdbfa
        0x0000c9f8:    4839        9H      LDR      r0,[pc,#228] ; [0xcae0] = 0x20000110
        0x0000c9fa:    2102        .!      MOVS     r1,#2
        0x0000c9fc:    6001        .`      STR      r1,[r0,#0]
        0x0000c9fe:    e7ff        ..      B        0xca00 ; BL_PreProcess + 312
        0x0000ca00:    4839        9H      LDR      r0,[pc,#228] ; [0xcae8] = 0x20000108
        0x0000ca02:    6800        .h      LDR      r0,[r0,#0]
        0x0000ca04:    2801        .(      CMP      r0,#1
        0x0000ca06:    d10e        ..      BNE      0xca26 ; BL_PreProcess + 350
        0x0000ca08:    e7ff        ..      B        0xca0a ; BL_PreProcess + 322
        0x0000ca0a:    4839        9H      LDR      r0,[pc,#228] ; [0xcaf0] = 0x2000010c
        0x0000ca0c:    6800        .h      LDR      r0,[r0,#0]
        0x0000ca0e:    2801        .(      CMP      r0,#1
        0x0000ca10:    d009        ..      BEQ      0xca26 ; BL_PreProcess + 350
        0x0000ca12:    e7ff        ..      B        0xca14 ; BL_PreProcess + 332
        0x0000ca14:    493c        <I      LDR      r1,[pc,#240] ; [0xcb08] = 0xe788
        0x0000ca16:    486a        jH      LDR      r0,[pc,#424] ; [0xcbc0] = 0x40150000
        0x0000ca18:    2209        ."      MOVS     r2,#9
        0x0000ca1a:    f001f8ee    ....    BL       bsp_nuc220x_UART_send_data ; 0xdbfa
        0x0000ca1e:    4830        0H      LDR      r0,[pc,#192] ; [0xcae0] = 0x20000110
        0x0000ca20:    2101        .!      MOVS     r1,#1
        0x0000ca22:    6001        .`      STR      r1,[r0,#0]
        0x0000ca24:    e7ff        ..      B        0xca26 ; BL_PreProcess + 350
        0x0000ca26:    4830        0H      LDR      r0,[pc,#192] ; [0xcae8] = 0x20000108
        0x0000ca28:    6800        .h      LDR      r0,[r0,#0]
        0x0000ca2a:    2801        .(      CMP      r0,#1
        0x0000ca2c:    d00e        ..      BEQ      0xca4c ; BL_PreProcess + 388
        0x0000ca2e:    e7ff        ..      B        0xca30 ; BL_PreProcess + 360
        0x0000ca30:    482f        /H      LDR      r0,[pc,#188] ; [0xcaf0] = 0x2000010c
        0x0000ca32:    6800        .h      LDR      r0,[r0,#0]
        0x0000ca34:    2801        .(      CMP      r0,#1
        0x0000ca36:    d009        ..      BEQ      0xca4c ; BL_PreProcess + 388
        0x0000ca38:    e7ff        ..      B        0xca3a ; BL_PreProcess + 370
        0x0000ca3a:    4934        4I      LDR      r1,[pc,#208] ; [0xcb0c] = 0xe776
        0x0000ca3c:    4860        `H      LDR      r0,[pc,#384] ; [0xcbc0] = 0x40150000
        0x0000ca3e:    2212        ."      MOVS     r2,#0x12
        0x0000ca40:    f001f8db    ....    BL       bsp_nuc220x_UART_send_data ; 0xdbfa
        0x0000ca44:    4826        &H      LDR      r0,[pc,#152] ; [0xcae0] = 0x20000110
        0x0000ca46:    2100        .!      MOVS     r1,#0
        0x0000ca48:    6001        .`      STR      r1,[r0,#0]
        0x0000ca4a:    e7ff        ..      B        0xca4c ; BL_PreProcess + 388
        0x0000ca4c:    4824        $H      LDR      r0,[pc,#144] ; [0xcae0] = 0x20000110
        0x0000ca4e:    6800        .h      LDR      r0,[r0,#0]
        0x0000ca50:    9907        ..      LDR      r1,[sp,#0x1c]
        0x0000ca52:    4288        .B      CMP      r0,r1
        0x0000ca54:    d10c        ..      BNE      0xca70 ; BL_PreProcess + 424
        0x0000ca56:    e7ff        ..      B        0xca58 ; BL_PreProcess + 400
        0x0000ca58:    4823        #H      LDR      r0,[pc,#140] ; [0xcae8] = 0x20000108
        0x0000ca5a:    6800        .h      LDR      r0,[r0,#0]
        0x0000ca5c:    9906        ..      LDR      r1,[sp,#0x18]
        0x0000ca5e:    4288        .B      CMP      r0,r1
        0x0000ca60:    d106        ..      BNE      0xca70 ; BL_PreProcess + 424
        0x0000ca62:    e7ff        ..      B        0xca64 ; BL_PreProcess + 412
        0x0000ca64:    4822        "H      LDR      r0,[pc,#136] ; [0xcaf0] = 0x2000010c
        0x0000ca66:    6800        .h      LDR      r0,[r0,#0]
        0x0000ca68:    9905        ..      LDR      r1,[sp,#0x14]
        0x0000ca6a:    4288        .B      CMP      r0,r1
        0x0000ca6c:    d017        ..      BEQ      0xca9e ; BL_PreProcess + 470
        0x0000ca6e:    e7ff        ..      B        0xca70 ; BL_PreProcess + 424
        0x0000ca70:    2007        .       MOVS     r0,#7
        0x0000ca72:    0380        ..      LSLS     r0,r0,#14
        0x0000ca74:    9002        ..      STR      r0,[sp,#8]
        0x0000ca76:    f000fc2f    ../.    BL       FMC_Erase ; 0xd2d8
        0x0000ca7a:    4919        .I      LDR      r1,[pc,#100] ; [0xcae0] = 0x20000110
        0x0000ca7c:    6809        .h      LDR      r1,[r1,#0]
        0x0000ca7e:    9a02        ..      LDR      r2,[sp,#8]
        0x0000ca80:    9001        ..      STR      r0,[sp,#4]
        0x0000ca82:    4610        .F      MOV      r0,r2
        0x0000ca84:    f000fc88    ....    BL       FMC_Write ; 0xd398
        0x0000ca88:    4817        .H      LDR      r0,[pc,#92] ; [0xcae8] = 0x20000108
        0x0000ca8a:    6801        .h      LDR      r1,[r0,#0]
        0x0000ca8c:    4815        .H      LDR      r0,[pc,#84] ; [0xcae4] = 0x1c004
        0x0000ca8e:    f000fc83    ....    BL       FMC_Write ; 0xd398
        0x0000ca92:    4817        .H      LDR      r0,[pc,#92] ; [0xcaf0] = 0x2000010c
        0x0000ca94:    6801        .h      LDR      r1,[r0,#0]
        0x0000ca96:    4815        .H      LDR      r0,[pc,#84] ; [0xcaec] = 0x1c008
        0x0000ca98:    f000fc7e    ..~.    BL       FMC_Write ; 0xd398
        0x0000ca9c:    e7ff        ..      B        0xca9e ; BL_PreProcess + 470
        0x0000ca9e:    4810        .H      LDR      r0,[pc,#64] ; [0xcae0] = 0x20000110
        0x0000caa0:    6800        .h      LDR      r0,[r0,#0]
        0x0000caa2:    2801        .(      CMP      r0,#1
        0x0000caa4:    d109        ..      BNE      0xcaba ; BL_PreProcess + 498
        0x0000caa6:    e7ff        ..      B        0xcaa8 ; BL_PreProcess + 480
        0x0000caa8:    491a        .I      LDR      r1,[pc,#104] ; [0xcb14] = 0xe72e
        0x0000caaa:    4845        EH      LDR      r0,[pc,#276] ; [0xcbc0] = 0x40150000
        0x0000caac:    2215        ."      MOVS     r2,#0x15
        0x0000caae:    f001f8a4    ....    BL       bsp_nuc220x_UART_send_data ; 0xdbfa
        0x0000cab2:    2000        .       MOVS     r0,#0
        0x0000cab4:    f7fffe42    ..B.    BL       BL_Cmd_Update_Firmware_Handle ; 0xc73c
        0x0000cab8:    e00f        ..      B        0xcada ; BL_PreProcess + 530
        0x0000caba:    4809        .H      LDR      r0,[pc,#36] ; [0xcae0] = 0x20000110
        0x0000cabc:    6800        .h      LDR      r0,[r0,#0]
        0x0000cabe:    2802        .(      CMP      r0,#2
        0x0000cac0:    d10a        ..      BNE      0xcad8 ; BL_PreProcess + 528
        0x0000cac2:    e7ff        ..      B        0xcac4 ; BL_PreProcess + 508
        0x0000cac4:    4912        .I      LDR      r1,[pc,#72] ; [0xcb10] = 0xe74e
        0x0000cac6:    483e        >H      LDR      r0,[pc,#248] ; [0xcbc0] = 0x40150000
        0x0000cac8:    2215        ."      MOVS     r2,#0x15
        0x0000caca:    f001f896    ....    BL       bsp_nuc220x_UART_send_data ; 0xdbfa
        0x0000cace:    2003        .       MOVS     r0,#3
        0x0000cad0:    03c0        ..      LSLS     r0,r0,#15
        0x0000cad2:    f7fffe33    ..3.    BL       BL_Cmd_Update_Firmware_Handle ; 0xc73c
        0x0000cad6:    e7ff        ..      B        0xcad8 ; BL_PreProcess + 528
        0x0000cad8:    e7ff        ..      B        0xcada ; BL_PreProcess + 530
        0x0000cada:    e7ff        ..      B        0xcadc ; BL_PreProcess + 532
        0x0000cadc:    b00a        ..      ADD      sp,sp,#0x28
        0x0000cade:    bd80        ..      POP      {r7,pc}
    $d.19
    __arm_cp.10_0
        0x0000cae0:    20000110    ...     DCD    536871184
    __arm_cp.10_1
        0x0000cae4:    0001c004    ....    DCD    114692
    __arm_cp.10_2
        0x0000cae8:    20000108    ...     DCD    536871176
    __arm_cp.10_3
        0x0000caec:    0001c008    ....    DCD    114696
    __arm_cp.10_4
        0x0000caf0:    2000010c    ...     DCD    536871180
    __arm_cp.10_5
        0x0000caf4:    50004200    .B.P    DCD    1342194176
    __arm_cp.10_6
        0x0000caf8:    20000104    ...     DCD    536871172
    __arm_cp.10_7
        0x0000cafc:    0000e712    ....    DCD    59154
    __arm_cp.10_9
        0x0000cb00:    0000e720     ...    DCD    59168
    __arm_cp.10_10
        0x0000cb04:    0000e763    c...    DCD    59235
    __arm_cp.10_11
        0x0000cb08:    0000e788    ....    DCD    59272
    __arm_cp.10_12
        0x0000cb0c:    0000e776    v...    DCD    59254
    __arm_cp.10_13
        0x0000cb10:    0000e74e    N...    DCD    59214
    __arm_cp.10_14
        0x0000cb14:    0000e72e    ....    DCD    59182
    $t.0
    BL_Process
        0x0000cb18:    b580        ..      PUSH     {r7,lr}
        0x0000cb1a:    b084        ..      SUB      sp,sp,#0x10
        0x0000cb1c:    a803        ..      ADD      r0,sp,#0xc
        0x0000cb1e:    2100        .!      MOVS     r1,#0
        0x0000cb20:    7001        .p      STRB     r1,[r0,#0]
        0x0000cb22:    e7ff        ..      B        0xcb24 ; BL_Process + 12
        0x0000cb24:    a803        ..      ADD      r0,sp,#0xc
        0x0000cb26:    7800        .x      LDRB     r0,[r0,#0]
        0x0000cb28:    28c7        .(      CMP      r0,#0xc7
        0x0000cb2a:    dc0a        ..      BGT      0xcb42 ; BL_Process + 42
        0x0000cb2c:    e7ff        ..      B        0xcb2e ; BL_Process + 22
        0x0000cb2e:    4821        !H      LDR      r0,[pc,#132] ; [0xcbb4] = 0x20000031
        0x0000cb30:    21c8        .!      MOVS     r1,#0xc8
        0x0000cb32:    2200        ."      MOVS     r2,#0
        0x0000cb34:    5442        BT      STRB     r2,[r0,r1]
        0x0000cb36:    e7ff        ..      B        0xcb38 ; BL_Process + 32
        0x0000cb38:    9803        ..      LDR      r0,[sp,#0xc]
        0x0000cb3a:    1c40        @.      ADDS     r0,r0,#1
        0x0000cb3c:    a903        ..      ADD      r1,sp,#0xc
        0x0000cb3e:    7008        .p      STRB     r0,[r1,#0]
        0x0000cb40:    e7f0        ..      B        0xcb24 ; BL_Process + 12
        0x0000cb42:    481c        .H      LDR      r0,[pc,#112] ; [0xcbb4] = 0x20000031
        0x0000cb44:    491c        .I      LDR      r1,[pc,#112] ; [0xcbb8] = 0x40050000
        0x0000cb46:    2201        ."      MOVS     r2,#1
        0x0000cb48:    9002        ..      STR      r0,[sp,#8]
        0x0000cb4a:    4608        .F      MOV      r0,r1
        0x0000cb4c:    9b02        ..      LDR      r3,[sp,#8]
        0x0000cb4e:    9101        ..      STR      r1,[sp,#4]
        0x0000cb50:    4619        .F      MOV      r1,r3
        0x0000cb52:    f001f82b    ..+.    BL       bsp_nuc220x_UART_receive_data ; 0xdbac
        0x0000cb56:    9802        ..      LDR      r0,[sp,#8]
        0x0000cb58:    7802        .x      LDRB     r2,[r0,#0]
        0x0000cb5a:    1c41        A.      ADDS     r1,r0,#1
        0x0000cb5c:    9801        ..      LDR      r0,[sp,#4]
        0x0000cb5e:    f001f825    ..%.    BL       bsp_nuc220x_UART_receive_data ; 0xdbac
        0x0000cb62:    9802        ..      LDR      r0,[sp,#8]
        0x0000cb64:    7841        Ax      LDRB     r1,[r0,#1]
        0x0000cb66:    2950        P)      CMP      r1,#0x50
        0x0000cb68:    9100        ..      STR      r1,[sp,#0]
        0x0000cb6a:    d008        ..      BEQ      0xcb7e ; BL_Process + 102
        0x0000cb6c:    e7ff        ..      B        0xcb6e ; BL_Process + 86
        0x0000cb6e:    9800        ..      LDR      r0,[sp,#0]
        0x0000cb70:    2852        R(      CMP      r0,#0x52
        0x0000cb72:    d008        ..      BEQ      0xcb86 ; BL_Process + 110
        0x0000cb74:    e7ff        ..      B        0xcb76 ; BL_Process + 94
        0x0000cb76:    9800        ..      LDR      r0,[sp,#0]
        0x0000cb78:    2853        S(      CMP      r0,#0x53
        0x0000cb7a:    d00e        ..      BEQ      0xcb9a ; BL_Process + 130
        0x0000cb7c:    e016        ..      B        0xcbac ; BL_Process + 148
        0x0000cb7e:    480d        .H      LDR      r0,[pc,#52] ; [0xcbb4] = 0x20000031
        0x0000cb80:    f7fffda0    ....    BL       BL_Cmd_Mem_Write_Handle ; 0xc6c4
        0x0000cb84:    e013        ..      B        0xcbae ; BL_Process + 150
        0x0000cb86:    490f        .I      LDR      r1,[pc,#60] ; [0xcbc4] = 0xe76b
        0x0000cb88:    480d        .H      LDR      r0,[pc,#52] ; [0xcbc0] = 0x40150000
        0x0000cb8a:    220b        ."      MOVS     r2,#0xb
        0x0000cb8c:    f001f835    ..5.    BL       bsp_nuc220x_UART_send_data ; 0xdbfa
        0x0000cb90:    2003        .       MOVS     r0,#3
        0x0000cb92:    03c0        ..      LSLS     r0,r0,#15
        0x0000cb94:    f7fffdd2    ....    BL       BL_Cmd_Update_Firmware_Handle ; 0xc73c
        0x0000cb98:    e009        ..      B        0xcbae ; BL_Process + 150
        0x0000cb9a:    4908        .I      LDR      r1,[pc,#32] ; [0xcbbc] = 0xe743
        0x0000cb9c:    4808        .H      LDR      r0,[pc,#32] ; [0xcbc0] = 0x40150000
        0x0000cb9e:    220b        ."      MOVS     r2,#0xb
        0x0000cba0:    f001f82b    ..+.    BL       bsp_nuc220x_UART_send_data ; 0xdbfa
        0x0000cba4:    2000        .       MOVS     r0,#0
        0x0000cba6:    f7fffdc9    ....    BL       BL_Cmd_Update_Firmware_Handle ; 0xc73c
        0x0000cbaa:    e000        ..      B        0xcbae ; BL_Process + 150
        0x0000cbac:    e7ff        ..      B        0xcbae ; BL_Process + 150
        0x0000cbae:    b004        ..      ADD      sp,sp,#0x10
        0x0000cbb0:    bd80        ..      POP      {r7,pc}
        0x0000cbb2:    46c0        .F      MOV      r8,r8
    $d.1
    __arm_cp.0_0
        0x0000cbb4:    20000031    1..     DCD    536870961
    __arm_cp.0_1
        0x0000cbb8:    40050000    ...@    DCD    1074069504
    __arm_cp.0_2
        0x0000cbbc:    0000e743    C...    DCD    59203
    __arm_cp.0_3
        0x0000cbc0:    40150000    ...@    DCD    1075118080
    __arm_cp.0_4
        0x0000cbc4:    0000e76b    k...    DCD    59243
    $t.6
    CLK_EnableModuleClock
        0x0000cbc8:    b085        ..      SUB      sp,sp,#0x14
        0x0000cbca:    9004        ..      STR      r0,[sp,#0x10]
        0x0000cbcc:    480c        .H      LDR      r0,[pc,#48] ; [0xcc00] = 0xe678
        0x0000cbce:    68c1        .h      LDR      r1,[r0,#0xc]
        0x0000cbd0:    9103        ..      STR      r1,[sp,#0xc]
        0x0000cbd2:    6881        .h      LDR      r1,[r0,#8]
        0x0000cbd4:    9102        ..      STR      r1,[sp,#8]
        0x0000cbd6:    6841        Ah      LDR      r1,[r0,#4]
        0x0000cbd8:    9101        ..      STR      r1,[sp,#4]
        0x0000cbda:    6800        .h      LDR      r0,[r0,#0]
        0x0000cbdc:    9000        ..      STR      r0,[sp,#0]
        0x0000cbde:    9804        ..      LDR      r0,[sp,#0x10]
        0x0000cbe0:    211f        .!      MOVS     r1,#0x1f
        0x0000cbe2:    4602        .F      MOV      r2,r0
        0x0000cbe4:    400a        .@      ANDS     r2,r2,r1
        0x0000cbe6:    2101        .!      MOVS     r1,#1
        0x0000cbe8:    4091        .@      LSLS     r1,r1,r2
        0x0000cbea:    0f80        ..      LSRS     r0,r0,#30
        0x0000cbec:    0080        ..      LSLS     r0,r0,#2
        0x0000cbee:    466a        jF      MOV      r2,sp
        0x0000cbf0:    5810        .X      LDR      r0,[r2,r0]
        0x0000cbf2:    4a04        .J      LDR      r2,[pc,#16] ; [0xcc04] = 0x50000204
        0x0000cbf4:    5883        .X      LDR      r3,[r0,r2]
        0x0000cbf6:    430b        .C      ORRS     r3,r3,r1
        0x0000cbf8:    5083        .P      STR      r3,[r0,r2]
        0x0000cbfa:    b005        ..      ADD      sp,sp,#0x14
        0x0000cbfc:    4770        pG      BX       lr
        0x0000cbfe:    46c0        .F      MOV      r8,r8
    $d.7
    __arm_cp.3_0
        0x0000cc00:    0000e678    x...    DCD    59000
    __arm_cp.3_1
        0x0000cc04:    50000204    ...P    DCD    1342177796
    $t.26
    CLK_EnablePLL
        0x0000cc08:    b580        ..      PUSH     {r7,lr}
        0x0000cc0a:    b092        ..      SUB      sp,sp,#0x48
        0x0000cc0c:    9010        ..      STR      r0,[sp,#0x40]
        0x0000cc0e:    910f        ..      STR      r1,[sp,#0x3c]
        0x0000cc10:    2001        .       MOVS     r0,#1
        0x0000cc12:    0400        ..      LSLS     r0,r0,#16
        0x0000cc14:    49d4        .I      LDR      r1,[pc,#848] ; [0xcf68] = 0x50000220
        0x0000cc16:    6008        .`      STR      r0,[r1,#0]
        0x0000cc18:    9810        ..      LDR      r0,[sp,#0x40]
        0x0000cc1a:    2800        .(      CMP      r0,#0
        0x0000cc1c:    d10f        ..      BNE      0xcc3e ; CLK_EnablePLL + 54
        0x0000cc1e:    e7ff        ..      B        0xcc20 ; CLK_EnablePLL + 24
        0x0000cc20:    4882        .H      LDR      r0,[pc,#520] ; [0xce2c] = 0x50000200
        0x0000cc22:    6801        .h      LDR      r1,[r0,#0]
        0x0000cc24:    2201        ."      MOVS     r2,#1
        0x0000cc26:    4311        .C      ORRS     r1,r1,r2
        0x0000cc28:    6001        .`      STR      r1,[r0,#0]
        0x0000cc2a:    4610        .F      MOV      r0,r2
        0x0000cc2c:    f000fb34    ..4.    BL       CLK_WaitClockReady ; 0xd298
        0x0000cc30:    2100        .!      MOVS     r1,#0
        0x0000cc32:    910a        ..      STR      r1,[sp,#0x28]
        0x0000cc34:    49cd        .I      LDR      r1,[pc,#820] ; [0xcf6c] = 0xb71b00
        0x0000cc36:    910e        ..      STR      r1,[sp,#0x38]
        0x0000cc38:    2102        .!      MOVS     r1,#2
        0x0000cc3a:    910d        ..      STR      r1,[sp,#0x34]
        0x0000cc3c:    e010        ..      B        0xcc60 ; CLK_EnablePLL + 88
        0x0000cc3e:    487b        {H      LDR      r0,[pc,#492] ; [0xce2c] = 0x50000200
        0x0000cc40:    6801        .h      LDR      r1,[r0,#0]
        0x0000cc42:    2204        ."      MOVS     r2,#4
        0x0000cc44:    4311        .C      ORRS     r1,r1,r2
        0x0000cc46:    6001        .`      STR      r1,[r0,#0]
        0x0000cc48:    2010        .       MOVS     r0,#0x10
        0x0000cc4a:    9203        ..      STR      r2,[sp,#0xc]
        0x0000cc4c:    f000fb24    ..$.    BL       CLK_WaitClockReady ; 0xd298
        0x0000cc50:    2101        .!      MOVS     r1,#1
        0x0000cc52:    04c9        ..      LSLS     r1,r1,#19
        0x0000cc54:    910a        ..      STR      r1,[sp,#0x28]
        0x0000cc56:    49ef        .I      LDR      r1,[pc,#956] ; [0xd014] = 0x1518000
        0x0000cc58:    910e        ..      STR      r1,[sp,#0x38]
        0x0000cc5a:    9903        ..      LDR      r1,[sp,#0xc]
        0x0000cc5c:    910d        ..      STR      r1,[sp,#0x34]
        0x0000cc5e:    e7ff        ..      B        0xcc60 ; CLK_EnablePLL + 88
        0x0000cc60:    980f        ..      LDR      r0,[sp,#0x3c]
        0x0000cc62:    4961        aI      LDR      r1,[pc,#388] ; [0xcde8] = 0xbebc200
        0x0000cc64:    4288        .B      CMP      r0,r1
        0x0000cc66:    d808        ..      BHI      0xcc7a ; CLK_EnablePLL + 114
        0x0000cc68:    e7ff        ..      B        0xcc6a ; CLK_EnablePLL + 98
        0x0000cc6a:    980f        ..      LDR      r0,[sp,#0x3c]
        0x0000cc6c:    495f        _I      LDR      r1,[pc,#380] ; [0xcdec] = 0x5f5e101
        0x0000cc6e:    4288        .B      CMP      r0,r1
        0x0000cc70:    d303        ..      BCC      0xcc7a ; CLK_EnablePLL + 114
        0x0000cc72:    e7ff        ..      B        0xcc74 ; CLK_EnablePLL + 108
        0x0000cc74:    2000        .       MOVS     r0,#0
        0x0000cc76:    900b        ..      STR      r0,[sp,#0x2c]
        0x0000cc78:    e022        ".      B        0xccc0 ; CLK_EnablePLL + 184
        0x0000cc7a:    980f        ..      LDR      r0,[sp,#0x3c]
        0x0000cc7c:    495c        \I      LDR      r1,[pc,#368] ; [0xcdf0] = 0x5f5e100
        0x0000cc7e:    4288        .B      CMP      r0,r1
        0x0000cc80:    d80b        ..      BHI      0xcc9a ; CLK_EnablePLL + 146
        0x0000cc82:    e7ff        ..      B        0xcc84 ; CLK_EnablePLL + 124
        0x0000cc84:    980f        ..      LDR      r0,[sp,#0x3c]
        0x0000cc86:    495b        [I      LDR      r1,[pc,#364] ; [0xcdf4] = 0x2faf081
        0x0000cc88:    4288        .B      CMP      r0,r1
        0x0000cc8a:    d306        ..      BCC      0xcc9a ; CLK_EnablePLL + 146
        0x0000cc8c:    e7ff        ..      B        0xcc8e ; CLK_EnablePLL + 134
        0x0000cc8e:    2001        .       MOVS     r0,#1
        0x0000cc90:    900b        ..      STR      r0,[sp,#0x2c]
        0x0000cc92:    980f        ..      LDR      r0,[sp,#0x3c]
        0x0000cc94:    0040        @.      LSLS     r0,r0,#1
        0x0000cc96:    900f        ..      STR      r0,[sp,#0x3c]
        0x0000cc98:    e011        ..      B        0xccbe ; CLK_EnablePLL + 182
        0x0000cc9a:    980f        ..      LDR      r0,[sp,#0x3c]
        0x0000cc9c:    4956        VI      LDR      r1,[pc,#344] ; [0xcdf8] = 0x2faf080
        0x0000cc9e:    4288        .B      CMP      r0,r1
        0x0000cca0:    d80b        ..      BHI      0xccba ; CLK_EnablePLL + 178
        0x0000cca2:    e7ff        ..      B        0xcca4 ; CLK_EnablePLL + 156
        0x0000cca4:    980f        ..      LDR      r0,[sp,#0x3c]
        0x0000cca6:    4955        UI      LDR      r1,[pc,#340] ; [0xcdfc] = 0x17d7840
        0x0000cca8:    4288        .B      CMP      r0,r1
        0x0000ccaa:    d306        ..      BCC      0xccba ; CLK_EnablePLL + 178
        0x0000ccac:    e7ff        ..      B        0xccae ; CLK_EnablePLL + 166
        0x0000ccae:    2003        .       MOVS     r0,#3
        0x0000ccb0:    900b        ..      STR      r0,[sp,#0x2c]
        0x0000ccb2:    980f        ..      LDR      r0,[sp,#0x3c]
        0x0000ccb4:    0080        ..      LSLS     r0,r0,#2
        0x0000ccb6:    900f        ..      STR      r0,[sp,#0x3c]
        0x0000ccb8:    e000        ..      B        0xccbc ; CLK_EnablePLL + 180
        0x0000ccba:    e07d        }.      B        0xcdb8 ; CLK_EnablePLL + 432
        0x0000ccbc:    e7ff        ..      B        0xccbe ; CLK_EnablePLL + 182
        0x0000ccbe:    e7ff        ..      B        0xccc0 ; CLK_EnablePLL + 184
        0x0000ccc0:    2000        .       MOVS     r0,#0
        0x0000ccc2:    43c1        .C      MVNS     r1,r0
        0x0000ccc4:    9106        ..      STR      r1,[sp,#0x18]
        0x0000ccc6:    9004        ..      STR      r0,[sp,#0x10]
        0x0000ccc8:    9005        ..      STR      r0,[sp,#0x14]
        0x0000ccca:    e7ff        ..      B        0xcccc ; CLK_EnablePLL + 196
        0x0000cccc:    980d        ..      LDR      r0,[sp,#0x34]
        0x0000ccce:    2821        !(      CMP      r0,#0x21
        0x0000ccd0:    d853        S.      BHI      0xcd7a ; CLK_EnablePLL + 370
        0x0000ccd2:    e7ff        ..      B        0xccd4 ; CLK_EnablePLL + 204
        0x0000ccd4:    980e        ..      LDR      r0,[sp,#0x38]
        0x0000ccd6:    990d        ..      LDR      r1,[sp,#0x34]
        0x0000ccd8:    f7fffa22    ..".    BL       __aeabi_uidiv ; 0xc120
        0x0000ccdc:    9009        ..      STR      r0,[sp,#0x24]
        0x0000ccde:    9809        ..      LDR      r0,[sp,#0x24]
        0x0000cce0:    494a        JI      LDR      r1,[pc,#296] ; [0xce0c] = 0x186a01
        0x0000cce2:    4288        .B      CMP      r0,r1
        0x0000cce4:    d344        D.      BCC      0xcd70 ; CLK_EnablePLL + 360
        0x0000cce6:    e7ff        ..      B        0xcce8 ; CLK_EnablePLL + 224
        0x0000cce8:    9809        ..      LDR      r0,[sp,#0x24]
        0x0000ccea:    4949        II      LDR      r1,[pc,#292] ; [0xce10] = 0xe4e1bf
        0x0000ccec:    4288        .B      CMP      r0,r1
        0x0000ccee:    d83f        ?.      BHI      0xcd70 ; CLK_EnablePLL + 360
        0x0000ccf0:    e7ff        ..      B        0xccf2 ; CLK_EnablePLL + 234
        0x0000ccf2:    2002        .       MOVS     r0,#2
        0x0000ccf4:    900c        ..      STR      r0,[sp,#0x30]
        0x0000ccf6:    e7ff        ..      B        0xccf8 ; CLK_EnablePLL + 240
        0x0000ccf8:    980c        ..      LDR      r0,[sp,#0x30]
        0x0000ccfa:    4946        FI      LDR      r1,[pc,#280] ; [0xce14] = 0x201
        0x0000ccfc:    4288        .B      CMP      r0,r1
        0x0000ccfe:    d836        6.      BHI      0xcd6e ; CLK_EnablePLL + 358
        0x0000cd00:    e7ff        ..      B        0xcd02 ; CLK_EnablePLL + 250
        0x0000cd02:    9809        ..      LDR      r0,[sp,#0x24]
        0x0000cd04:    990c        ..      LDR      r1,[sp,#0x30]
        0x0000cd06:    4341        AC      MULS     r1,r0,r1
        0x0000cd08:    9108        ..      STR      r1,[sp,#0x20]
        0x0000cd0a:    9808        ..      LDR      r0,[sp,#0x20]
        0x0000cd0c:    4938        8I      LDR      r1,[pc,#224] ; [0xcdf0] = 0x5f5e100
        0x0000cd0e:    4288        .B      CMP      r0,r1
        0x0000cd10:    d328        (.      BCC      0xcd64 ; CLK_EnablePLL + 348
        0x0000cd12:    e7ff        ..      B        0xcd14 ; CLK_EnablePLL + 268
        0x0000cd14:    9808        ..      LDR      r0,[sp,#0x20]
        0x0000cd16:    4934        4I      LDR      r1,[pc,#208] ; [0xcde8] = 0xbebc200
        0x0000cd18:    4288        .B      CMP      r0,r1
        0x0000cd1a:    d823        #.      BHI      0xcd64 ; CLK_EnablePLL + 348
        0x0000cd1c:    e7ff        ..      B        0xcd1e ; CLK_EnablePLL + 278
        0x0000cd1e:    9808        ..      LDR      r0,[sp,#0x20]
        0x0000cd20:    990f        ..      LDR      r1,[sp,#0x3c]
        0x0000cd22:    4288        .B      CMP      r0,r1
        0x0000cd24:    d905        ..      BLS      0xcd32 ; CLK_EnablePLL + 298
        0x0000cd26:    e7ff        ..      B        0xcd28 ; CLK_EnablePLL + 288
        0x0000cd28:    9808        ..      LDR      r0,[sp,#0x20]
        0x0000cd2a:    990f        ..      LDR      r1,[sp,#0x3c]
        0x0000cd2c:    1a40        @.      SUBS     r0,r0,r1
        0x0000cd2e:    9002        ..      STR      r0,[sp,#8]
        0x0000cd30:    e004        ..      B        0xcd3c ; CLK_EnablePLL + 308
        0x0000cd32:    980f        ..      LDR      r0,[sp,#0x3c]
        0x0000cd34:    9908        ..      LDR      r1,[sp,#0x20]
        0x0000cd36:    1a40        @.      SUBS     r0,r0,r1
        0x0000cd38:    9002        ..      STR      r0,[sp,#8]
        0x0000cd3a:    e7ff        ..      B        0xcd3c ; CLK_EnablePLL + 308
        0x0000cd3c:    9802        ..      LDR      r0,[sp,#8]
        0x0000cd3e:    9007        ..      STR      r0,[sp,#0x1c]
        0x0000cd40:    9807        ..      LDR      r0,[sp,#0x1c]
        0x0000cd42:    9906        ..      LDR      r1,[sp,#0x18]
        0x0000cd44:    4288        .B      CMP      r0,r1
        0x0000cd46:    d20c        ..      BCS      0xcd62 ; CLK_EnablePLL + 346
        0x0000cd48:    e7ff        ..      B        0xcd4a ; CLK_EnablePLL + 322
        0x0000cd4a:    9807        ..      LDR      r0,[sp,#0x1c]
        0x0000cd4c:    9006        ..      STR      r0,[sp,#0x18]
        0x0000cd4e:    980d        ..      LDR      r0,[sp,#0x34]
        0x0000cd50:    9004        ..      STR      r0,[sp,#0x10]
        0x0000cd52:    980c        ..      LDR      r0,[sp,#0x30]
        0x0000cd54:    9005        ..      STR      r0,[sp,#0x14]
        0x0000cd56:    9806        ..      LDR      r0,[sp,#0x18]
        0x0000cd58:    2800        .(      CMP      r0,#0
        0x0000cd5a:    d101        ..      BNE      0xcd60 ; CLK_EnablePLL + 344
        0x0000cd5c:    e7ff        ..      B        0xcd5e ; CLK_EnablePLL + 342
        0x0000cd5e:    e006        ..      B        0xcd6e ; CLK_EnablePLL + 358
        0x0000cd60:    e7ff        ..      B        0xcd62 ; CLK_EnablePLL + 346
        0x0000cd62:    e7ff        ..      B        0xcd64 ; CLK_EnablePLL + 348
        0x0000cd64:    e7ff        ..      B        0xcd66 ; CLK_EnablePLL + 350
        0x0000cd66:    980c        ..      LDR      r0,[sp,#0x30]
        0x0000cd68:    1c40        @.      ADDS     r0,r0,#1
        0x0000cd6a:    900c        ..      STR      r0,[sp,#0x30]
        0x0000cd6c:    e7c4        ..      B        0xccf8 ; CLK_EnablePLL + 240
        0x0000cd6e:    e7ff        ..      B        0xcd70 ; CLK_EnablePLL + 360
        0x0000cd70:    e7ff        ..      B        0xcd72 ; CLK_EnablePLL + 362
        0x0000cd72:    980d        ..      LDR      r0,[sp,#0x34]
        0x0000cd74:    1c40        @.      ADDS     r0,r0,#1
        0x0000cd76:    900d        ..      STR      r0,[sp,#0x34]
        0x0000cd78:    e7a8        ..      B        0xcccc ; CLK_EnablePLL + 196
        0x0000cd7a:    980a        ..      LDR      r0,[sp,#0x28]
        0x0000cd7c:    990b        ..      LDR      r1,[sp,#0x2c]
        0x0000cd7e:    0389        ..      LSLS     r1,r1,#14
        0x0000cd80:    4308        .C      ORRS     r0,r0,r1
        0x0000cd82:    9904        ..      LDR      r1,[sp,#0x10]
        0x0000cd84:    0249        I.      LSLS     r1,r1,#9
        0x0000cd86:    4a20         J      LDR      r2,[pc,#128] ; [0xce08] = 0xfffffc00
        0x0000cd88:    1889        ..      ADDS     r1,r1,r2
        0x0000cd8a:    4308        .C      ORRS     r0,r0,r1
        0x0000cd8c:    9905        ..      LDR      r1,[sp,#0x14]
        0x0000cd8e:    1e89        ..      SUBS     r1,r1,#2
        0x0000cd90:    4308        .C      ORRS     r0,r0,r1
        0x0000cd92:    49d3        .I      LDR      r1,[pc,#844] ; [0xd0e0] = 0x50000220
        0x0000cd94:    6008        .`      STR      r0,[r1,#0]
        0x0000cd96:    2004        .       MOVS     r0,#4
        0x0000cd98:    f000fa7e    ..~.    BL       CLK_WaitClockReady ; 0xd298
        0x0000cd9c:    990e        ..      LDR      r1,[sp,#0x38]
        0x0000cd9e:    9a0b        ..      LDR      r2,[sp,#0x2c]
        0x0000cda0:    1c52        R.      ADDS     r2,r2,#1
        0x0000cda2:    9b04        ..      LDR      r3,[sp,#0x10]
        0x0000cda4:    4353        SC      MULS     r3,r2,r3
        0x0000cda6:    9001        ..      STR      r0,[sp,#4]
        0x0000cda8:    4608        .F      MOV      r0,r1
        0x0000cdaa:    4619        .F      MOV      r1,r3
        0x0000cdac:    f7fff9b8    ....    BL       __aeabi_uidiv ; 0xc120
        0x0000cdb0:    9905        ..      LDR      r1,[sp,#0x14]
        0x0000cdb2:    4341        AC      MULS     r1,r0,r1
        0x0000cdb4:    9111        ..      STR      r1,[sp,#0x44]
        0x0000cdb6:    e013        ..      B        0xcde0 ; CLK_EnablePLL + 472
        0x0000cdb8:    9810        ..      LDR      r0,[sp,#0x40]
        0x0000cdba:    2800        .(      CMP      r0,#0
        0x0000cdbc:    d104        ..      BNE      0xcdc8 ; CLK_EnablePLL + 448
        0x0000cdbe:    e7ff        ..      B        0xcdc0 ; CLK_EnablePLL + 440
        0x0000cdc0:    48c7        .H      LDR      r0,[pc,#796] ; [0xd0e0] = 0x50000220
        0x0000cdc2:    4910        .I      LDR      r1,[pc,#64] ; [0xce04] = 0xc22e
        0x0000cdc4:    6001        .`      STR      r1,[r0,#0]
        0x0000cdc6:    e003        ..      B        0xcdd0 ; CLK_EnablePLL + 456
        0x0000cdc8:    48c5        .H      LDR      r0,[pc,#788] ; [0xd0e0] = 0x50000220
        0x0000cdca:    490d        .I      LDR      r1,[pc,#52] ; [0xce00] = 0x8d66f
        0x0000cdcc:    6001        .`      STR      r1,[r0,#0]
        0x0000cdce:    e7ff        ..      B        0xcdd0 ; CLK_EnablePLL + 456
        0x0000cdd0:    2004        .       MOVS     r0,#4
        0x0000cdd2:    f000fa61    ..a.    BL       CLK_WaitClockReady ; 0xd298
        0x0000cdd6:    9000        ..      STR      r0,[sp,#0]
        0x0000cdd8:    f000f878    ..x.    BL       CLK_GetPLLClockFreq ; 0xcecc
        0x0000cddc:    9011        ..      STR      r0,[sp,#0x44]
        0x0000cdde:    e7ff        ..      B        0xcde0 ; CLK_EnablePLL + 472
        0x0000cde0:    9811        ..      LDR      r0,[sp,#0x44]
        0x0000cde2:    b012        ..      ADD      sp,sp,#0x48
        0x0000cde4:    bd80        ..      POP      {r7,pc}
        0x0000cde6:    46c0        .F      MOV      r8,r8
    $d.27
    __arm_cp.13_4
        0x0000cde8:    0bebc200    ....    DCD    200000000
    __arm_cp.13_5
        0x0000cdec:    05f5e101    ....    DCD    100000001
    __arm_cp.13_6
        0x0000cdf0:    05f5e100    ....    DCD    100000000
    __arm_cp.13_7
        0x0000cdf4:    02faf081    ....    DCD    50000001
    __arm_cp.13_8
        0x0000cdf8:    02faf080    ....    DCD    50000000
    __arm_cp.13_9
        0x0000cdfc:    017d7840    @x}.    DCD    25000000
    __arm_cp.13_10
        0x0000ce00:    0008d66f    o...    DCD    579183
    __arm_cp.13_11
        0x0000ce04:    0000c22e    ....    DCD    49710
    __arm_cp.13_12
        0x0000ce08:    fffffc00    ....    DCD    4294966272
    __arm_cp.13_13
        0x0000ce0c:    00186a01    .j..    DCD    1600001
    __arm_cp.13_14
        0x0000ce10:    00e4e1bf    ....    DCD    14999999
    __arm_cp.13_15
        0x0000ce14:    00000201    ....    DCD    513
    $t.32
    CLK_EnableXtalRC
        0x0000ce18:    b081        ..      SUB      sp,sp,#4
        0x0000ce1a:    9000        ..      STR      r0,[sp,#0]
        0x0000ce1c:    9800        ..      LDR      r0,[sp,#0]
        0x0000ce1e:    49cc        .I      LDR      r1,[pc,#816] ; [0xd150] = 0x50000200
        0x0000ce20:    680a        .h      LDR      r2,[r1,#0]
        0x0000ce22:    4302        .C      ORRS     r2,r2,r0
        0x0000ce24:    600a        .`      STR      r2,[r1,#0]
        0x0000ce26:    b001        ..      ADD      sp,sp,#4
        0x0000ce28:    4770        pG      BX       lr
        0x0000ce2a:    46c0        .F      MOV      r8,r8
    $d.33
    __arm_cp.16_0
        0x0000ce2c:    50000200    ...P    DCD    1342177792
    $t.2
    CLK_GetPLLClockFreq
        0x0000ce30:    b580        ..      PUSH     {r7,lr}
        0x0000ce32:    b088        ..      SUB      sp,sp,#0x20
        0x0000ce34:    2000        .       MOVS     r0,#0
        0x0000ce36:    9006        ..      STR      r0,[sp,#0x18]
        0x0000ce38:    4874        tH      LDR      r0,[pc,#464] ; [0xd00c] = 0x4020201
        0x0000ce3a:    9000        ..      STR      r0,[sp,#0]
        0x0000ce3c:    48a8        .H      LDR      r0,[pc,#672] ; [0xd0e0] = 0x50000220
        0x0000ce3e:    6800        .h      LDR      r0,[r0,#0]
        0x0000ce40:    9005        ..      STR      r0,[sp,#0x14]
        0x0000ce42:    a805        ..      ADD      r0,sp,#0x14
        0x0000ce44:    7880        .x      LDRB     r0,[r0,#2]
        0x0000ce46:    2105        .!      MOVS     r1,#5
        0x0000ce48:    4208        .B      TST      r0,r1
        0x0000ce4a:    d003        ..      BEQ      0xce54 ; CLK_GetPLLClockFreq + 36
        0x0000ce4c:    e7ff        ..      B        0xce4e ; CLK_GetPLLClockFreq + 30
        0x0000ce4e:    2000        .       MOVS     r0,#0
        0x0000ce50:    9007        ..      STR      r0,[sp,#0x1c]
        0x0000ce52:    e037        7.      B        0xcec4 ; CLK_GetPLLClockFreq + 148
        0x0000ce54:    a805        ..      ADD      r0,sp,#0x14
        0x0000ce56:    7880        .x      LDRB     r0,[r0,#2]
        0x0000ce58:    0700        ..      LSLS     r0,r0,#28
        0x0000ce5a:    2800        .(      CMP      r0,#0
        0x0000ce5c:    d503        ..      BPL      0xce66 ; CLK_GetPLLClockFreq + 54
        0x0000ce5e:    e7ff        ..      B        0xce60 ; CLK_GetPLLClockFreq + 48
        0x0000ce60:    486c        lH      LDR      r0,[pc,#432] ; [0xd014] = 0x1518000
        0x0000ce62:    9004        ..      STR      r0,[sp,#0x10]
        0x0000ce64:    e002        ..      B        0xce6c ; CLK_GetPLLClockFreq + 60
        0x0000ce66:    486a        jH      LDR      r0,[pc,#424] ; [0xd010] = 0xb71b00
        0x0000ce68:    9004        ..      STR      r0,[sp,#0x10]
        0x0000ce6a:    e7ff        ..      B        0xce6c ; CLK_GetPLLClockFreq + 60
        0x0000ce6c:    a805        ..      ADD      r0,sp,#0x14
        0x0000ce6e:    7880        .x      LDRB     r0,[r0,#2]
        0x0000ce70:    0780        ..      LSLS     r0,r0,#30
        0x0000ce72:    2800        .(      CMP      r0,#0
        0x0000ce74:    d503        ..      BPL      0xce7e ; CLK_GetPLLClockFreq + 78
        0x0000ce76:    e7ff        ..      B        0xce78 ; CLK_GetPLLClockFreq + 72
        0x0000ce78:    9804        ..      LDR      r0,[sp,#0x10]
        0x0000ce7a:    9007        ..      STR      r0,[sp,#0x1c]
        0x0000ce7c:    e022        ".      B        0xcec4 ; CLK_GetPLLClockFreq + 148
        0x0000ce7e:    a805        ..      ADD      r0,sp,#0x14
        0x0000ce80:    8800        ..      LDRH     r0,[r0,#0]
        0x0000ce82:    0b80        ..      LSRS     r0,r0,#14
        0x0000ce84:    4669        iF      MOV      r1,sp
        0x0000ce86:    1808        ..      ADDS     r0,r1,r0
        0x0000ce88:    7800        .x      LDRB     r0,[r0,#0]
        0x0000ce8a:    9001        ..      STR      r0,[sp,#4]
        0x0000ce8c:    9805        ..      LDR      r0,[sp,#0x14]
        0x0000ce8e:    4962        bI      LDR      r1,[pc,#392] ; [0xd018] = 0x1ff
        0x0000ce90:    4008        .@      ANDS     r0,r0,r1
        0x0000ce92:    1c80        ..      ADDS     r0,r0,#2
        0x0000ce94:    9003        ..      STR      r0,[sp,#0xc]
        0x0000ce96:    9805        ..      LDR      r0,[sp,#0x14]
        0x0000ce98:    211f        .!      MOVS     r1,#0x1f
        0x0000ce9a:    0249        I.      LSLS     r1,r1,#9
        0x0000ce9c:    4008        .@      ANDS     r0,r0,r1
        0x0000ce9e:    0a40        @.      LSRS     r0,r0,#9
        0x0000cea0:    1c80        ..      ADDS     r0,r0,#2
        0x0000cea2:    9002        ..      STR      r0,[sp,#8]
        0x0000cea4:    9804        ..      LDR      r0,[sp,#0x10]
        0x0000cea6:    0880        ..      LSRS     r0,r0,#2
        0x0000cea8:    9903        ..      LDR      r1,[sp,#0xc]
        0x0000ceaa:    4341        AC      MULS     r1,r0,r1
        0x0000ceac:    9802        ..      LDR      r0,[sp,#8]
        0x0000ceae:    9a01        ..      LDR      r2,[sp,#4]
        0x0000ceb0:    4342        BC      MULS     r2,r0,r2
        0x0000ceb2:    4608        .F      MOV      r0,r1
        0x0000ceb4:    4611        .F      MOV      r1,r2
        0x0000ceb6:    f7fff933    ..3.    BL       __aeabi_uidiv ; 0xc120
        0x0000ceba:    0080        ..      LSLS     r0,r0,#2
        0x0000cebc:    9006        ..      STR      r0,[sp,#0x18]
        0x0000cebe:    9806        ..      LDR      r0,[sp,#0x18]
        0x0000cec0:    9007        ..      STR      r0,[sp,#0x1c]
        0x0000cec2:    e7ff        ..      B        0xcec4 ; CLK_GetPLLClockFreq + 148
        0x0000cec4:    9807        ..      LDR      r0,[sp,#0x1c]
        0x0000cec6:    b008        ..      ADD      sp,sp,#0x20
        0x0000cec8:    bd80        ..      POP      {r7,pc}
        0x0000ceca:    46c0        .F      MOV      r8,r8
    CLK_GetPLLClockFreq
        0x0000cecc:    b580        ..      PUSH     {r7,lr}
        0x0000cece:    b088        ..      SUB      sp,sp,#0x20
        0x0000ced0:    2000        .       MOVS     r0,#0
        0x0000ced2:    9006        ..      STR      r0,[sp,#0x18]
        0x0000ced4:    484d        MH      LDR      r0,[pc,#308] ; [0xd00c] = 0x4020201
        0x0000ced6:    9000        ..      STR      r0,[sp,#0]
        0x0000ced8:    4881        .H      LDR      r0,[pc,#516] ; [0xd0e0] = 0x50000220
        0x0000ceda:    6800        .h      LDR      r0,[r0,#0]
        0x0000cedc:    9005        ..      STR      r0,[sp,#0x14]
        0x0000cede:    a805        ..      ADD      r0,sp,#0x14
        0x0000cee0:    7880        .x      LDRB     r0,[r0,#2]
        0x0000cee2:    2105        .!      MOVS     r1,#5
        0x0000cee4:    4208        .B      TST      r0,r1
        0x0000cee6:    d003        ..      BEQ      0xcef0 ; CLK_GetPLLClockFreq + 36
        0x0000cee8:    e7ff        ..      B        0xceea ; CLK_GetPLLClockFreq + 30
        0x0000ceea:    2000        .       MOVS     r0,#0
        0x0000ceec:    9007        ..      STR      r0,[sp,#0x1c]
        0x0000ceee:    e037        7.      B        0xcf60 ; CLK_GetPLLClockFreq + 148
        0x0000cef0:    a805        ..      ADD      r0,sp,#0x14
        0x0000cef2:    7880        .x      LDRB     r0,[r0,#2]
        0x0000cef4:    0700        ..      LSLS     r0,r0,#28
        0x0000cef6:    2800        .(      CMP      r0,#0
        0x0000cef8:    d503        ..      BPL      0xcf02 ; CLK_GetPLLClockFreq + 54
        0x0000cefa:    e7ff        ..      B        0xcefc ; CLK_GetPLLClockFreq + 48
        0x0000cefc:    4845        EH      LDR      r0,[pc,#276] ; [0xd014] = 0x1518000
        0x0000cefe:    9004        ..      STR      r0,[sp,#0x10]
        0x0000cf00:    e002        ..      B        0xcf08 ; CLK_GetPLLClockFreq + 60
        0x0000cf02:    4843        CH      LDR      r0,[pc,#268] ; [0xd010] = 0xb71b00
        0x0000cf04:    9004        ..      STR      r0,[sp,#0x10]
        0x0000cf06:    e7ff        ..      B        0xcf08 ; CLK_GetPLLClockFreq + 60
        0x0000cf08:    a805        ..      ADD      r0,sp,#0x14
        0x0000cf0a:    7880        .x      LDRB     r0,[r0,#2]
        0x0000cf0c:    0780        ..      LSLS     r0,r0,#30
        0x0000cf0e:    2800        .(      CMP      r0,#0
        0x0000cf10:    d503        ..      BPL      0xcf1a ; CLK_GetPLLClockFreq + 78
        0x0000cf12:    e7ff        ..      B        0xcf14 ; CLK_GetPLLClockFreq + 72
        0x0000cf14:    9804        ..      LDR      r0,[sp,#0x10]
        0x0000cf16:    9007        ..      STR      r0,[sp,#0x1c]
        0x0000cf18:    e022        ".      B        0xcf60 ; CLK_GetPLLClockFreq + 148
        0x0000cf1a:    a805        ..      ADD      r0,sp,#0x14
        0x0000cf1c:    8800        ..      LDRH     r0,[r0,#0]
        0x0000cf1e:    0b80        ..      LSRS     r0,r0,#14
        0x0000cf20:    4669        iF      MOV      r1,sp
        0x0000cf22:    1808        ..      ADDS     r0,r1,r0
        0x0000cf24:    7800        .x      LDRB     r0,[r0,#0]
        0x0000cf26:    9001        ..      STR      r0,[sp,#4]
        0x0000cf28:    9805        ..      LDR      r0,[sp,#0x14]
        0x0000cf2a:    493b        ;I      LDR      r1,[pc,#236] ; [0xd018] = 0x1ff
        0x0000cf2c:    4008        .@      ANDS     r0,r0,r1
        0x0000cf2e:    1c80        ..      ADDS     r0,r0,#2
        0x0000cf30:    9003        ..      STR      r0,[sp,#0xc]
        0x0000cf32:    9805        ..      LDR      r0,[sp,#0x14]
        0x0000cf34:    211f        .!      MOVS     r1,#0x1f
        0x0000cf36:    0249        I.      LSLS     r1,r1,#9
        0x0000cf38:    4008        .@      ANDS     r0,r0,r1
        0x0000cf3a:    0a40        @.      LSRS     r0,r0,#9
        0x0000cf3c:    1c80        ..      ADDS     r0,r0,#2
        0x0000cf3e:    9002        ..      STR      r0,[sp,#8]
        0x0000cf40:    9804        ..      LDR      r0,[sp,#0x10]
        0x0000cf42:    0880        ..      LSRS     r0,r0,#2
        0x0000cf44:    9903        ..      LDR      r1,[sp,#0xc]
        0x0000cf46:    4341        AC      MULS     r1,r0,r1
        0x0000cf48:    9802        ..      LDR      r0,[sp,#8]
        0x0000cf4a:    9a01        ..      LDR      r2,[sp,#4]
        0x0000cf4c:    4342        BC      MULS     r2,r0,r2
        0x0000cf4e:    4608        .F      MOV      r0,r1
        0x0000cf50:    4611        .F      MOV      r1,r2
        0x0000cf52:    f7fff8e5    ....    BL       __aeabi_uidiv ; 0xc120
        0x0000cf56:    0080        ..      LSLS     r0,r0,#2
        0x0000cf58:    9006        ..      STR      r0,[sp,#0x18]
        0x0000cf5a:    9806        ..      LDR      r0,[sp,#0x18]
        0x0000cf5c:    9007        ..      STR      r0,[sp,#0x1c]
        0x0000cf5e:    e7ff        ..      B        0xcf60 ; CLK_GetPLLClockFreq + 148
        0x0000cf60:    9807        ..      LDR      r0,[sp,#0x1c]
        0x0000cf62:    b008        ..      ADD      sp,sp,#0x20
        0x0000cf64:    bd80        ..      POP      {r7,pc}
        0x0000cf66:    46c0        .F      MOV      r8,r8
    $d.39
    __arm_cp.19_1
        0x0000cf68:    50000220     ..P    DCD    1342177824
    __arm_cp.19_2
        0x0000cf6c:    00b71b00    ....    DCD    12000000
    $t.15
    CLK_GetPLLClockFreq
        0x0000cf70:    b580        ..      PUSH     {r7,lr}
        0x0000cf72:    b088        ..      SUB      sp,sp,#0x20
        0x0000cf74:    2000        .       MOVS     r0,#0
        0x0000cf76:    9006        ..      STR      r0,[sp,#0x18]
        0x0000cf78:    4824        $H      LDR      r0,[pc,#144] ; [0xd00c] = 0x4020201
        0x0000cf7a:    9000        ..      STR      r0,[sp,#0]
        0x0000cf7c:    4858        XH      LDR      r0,[pc,#352] ; [0xd0e0] = 0x50000220
        0x0000cf7e:    6800        .h      LDR      r0,[r0,#0]
        0x0000cf80:    9005        ..      STR      r0,[sp,#0x14]
        0x0000cf82:    a805        ..      ADD      r0,sp,#0x14
        0x0000cf84:    7880        .x      LDRB     r0,[r0,#2]
        0x0000cf86:    2105        .!      MOVS     r1,#5
        0x0000cf88:    4208        .B      TST      r0,r1
        0x0000cf8a:    d003        ..      BEQ      0xcf94 ; CLK_GetPLLClockFreq + 36
        0x0000cf8c:    e7ff        ..      B        0xcf8e ; CLK_GetPLLClockFreq + 30
        0x0000cf8e:    2000        .       MOVS     r0,#0
        0x0000cf90:    9007        ..      STR      r0,[sp,#0x1c]
        0x0000cf92:    e037        7.      B        0xd004 ; CLK_GetPLLClockFreq + 148
        0x0000cf94:    a805        ..      ADD      r0,sp,#0x14
        0x0000cf96:    7880        .x      LDRB     r0,[r0,#2]
        0x0000cf98:    0700        ..      LSLS     r0,r0,#28
        0x0000cf9a:    2800        .(      CMP      r0,#0
        0x0000cf9c:    d503        ..      BPL      0xcfa6 ; CLK_GetPLLClockFreq + 54
        0x0000cf9e:    e7ff        ..      B        0xcfa0 ; CLK_GetPLLClockFreq + 48
        0x0000cfa0:    481c        .H      LDR      r0,[pc,#112] ; [0xd014] = 0x1518000
        0x0000cfa2:    9004        ..      STR      r0,[sp,#0x10]
        0x0000cfa4:    e002        ..      B        0xcfac ; CLK_GetPLLClockFreq + 60
        0x0000cfa6:    481a        .H      LDR      r0,[pc,#104] ; [0xd010] = 0xb71b00
        0x0000cfa8:    9004        ..      STR      r0,[sp,#0x10]
        0x0000cfaa:    e7ff        ..      B        0xcfac ; CLK_GetPLLClockFreq + 60
        0x0000cfac:    a805        ..      ADD      r0,sp,#0x14
        0x0000cfae:    7880        .x      LDRB     r0,[r0,#2]
        0x0000cfb0:    0780        ..      LSLS     r0,r0,#30
        0x0000cfb2:    2800        .(      CMP      r0,#0
        0x0000cfb4:    d503        ..      BPL      0xcfbe ; CLK_GetPLLClockFreq + 78
        0x0000cfb6:    e7ff        ..      B        0xcfb8 ; CLK_GetPLLClockFreq + 72
        0x0000cfb8:    9804        ..      LDR      r0,[sp,#0x10]
        0x0000cfba:    9007        ..      STR      r0,[sp,#0x1c]
        0x0000cfbc:    e022        ".      B        0xd004 ; CLK_GetPLLClockFreq + 148
        0x0000cfbe:    a805        ..      ADD      r0,sp,#0x14
        0x0000cfc0:    8800        ..      LDRH     r0,[r0,#0]
        0x0000cfc2:    0b80        ..      LSRS     r0,r0,#14
        0x0000cfc4:    4669        iF      MOV      r1,sp
        0x0000cfc6:    1808        ..      ADDS     r0,r1,r0
        0x0000cfc8:    7800        .x      LDRB     r0,[r0,#0]
        0x0000cfca:    9001        ..      STR      r0,[sp,#4]
        0x0000cfcc:    9805        ..      LDR      r0,[sp,#0x14]
        0x0000cfce:    4912        .I      LDR      r1,[pc,#72] ; [0xd018] = 0x1ff
        0x0000cfd0:    4008        .@      ANDS     r0,r0,r1
        0x0000cfd2:    1c80        ..      ADDS     r0,r0,#2
        0x0000cfd4:    9003        ..      STR      r0,[sp,#0xc]
        0x0000cfd6:    9805        ..      LDR      r0,[sp,#0x14]
        0x0000cfd8:    211f        .!      MOVS     r1,#0x1f
        0x0000cfda:    0249        I.      LSLS     r1,r1,#9
        0x0000cfdc:    4008        .@      ANDS     r0,r0,r1
        0x0000cfde:    0a40        @.      LSRS     r0,r0,#9
        0x0000cfe0:    1c80        ..      ADDS     r0,r0,#2
        0x0000cfe2:    9002        ..      STR      r0,[sp,#8]
        0x0000cfe4:    9804        ..      LDR      r0,[sp,#0x10]
        0x0000cfe6:    0880        ..      LSRS     r0,r0,#2
        0x0000cfe8:    9903        ..      LDR      r1,[sp,#0xc]
        0x0000cfea:    4341        AC      MULS     r1,r0,r1
        0x0000cfec:    9802        ..      LDR      r0,[sp,#8]
        0x0000cfee:    9a01        ..      LDR      r2,[sp,#4]
        0x0000cff0:    4342        BC      MULS     r2,r0,r2
        0x0000cff2:    4608        .F      MOV      r0,r1
        0x0000cff4:    4611        .F      MOV      r1,r2
        0x0000cff6:    f7fff893    ....    BL       __aeabi_uidiv ; 0xc120
        0x0000cffa:    0080        ..      LSLS     r0,r0,#2
        0x0000cffc:    9006        ..      STR      r0,[sp,#0x18]
        0x0000cffe:    9806        ..      LDR      r0,[sp,#0x18]
        0x0000d000:    9007        ..      STR      r0,[sp,#0x1c]
        0x0000d002:    e7ff        ..      B        0xd004 ; CLK_GetPLLClockFreq + 148
        0x0000d004:    9807        ..      LDR      r0,[sp,#0x1c]
        0x0000d006:    b008        ..      ADD      sp,sp,#0x20
        0x0000d008:    bd80        ..      POP      {r7,pc}
        0x0000d00a:    46c0        .F      MOV      r8,r8
    $d.16
    __arm_cp.9_0
        0x0000d00c:    04020201    ....    DCD    67240449
    __arm_cp.9_2
        0x0000d010:    00b71b00    ....    DCD    12000000
    __arm_cp.9_3
        0x0000d014:    01518000    ..Q.    DCD    22118400
    __arm_cp.9_4
        0x0000d018:    000001ff    ....    DCD    511
    $t.24
    CLK_SetCoreClock
        0x0000d01c:    b580        ..      PUSH     {r7,lr}
        0x0000d01e:    b082        ..      SUB      sp,sp,#8
        0x0000d020:    9001        ..      STR      r0,[sp,#4]
        0x0000d022:    48ac        .H      LDR      r0,[pc,#688] ; [0xd2d4] = 0x5000020c
        0x0000d024:    6800        .h      LDR      r0,[r0,#0]
        0x0000d026:    2110        .!      MOVS     r1,#0x10
        0x0000d028:    4008        .@      ANDS     r0,r0,r1
        0x0000d02a:    9000        ..      STR      r0,[sp,#0]
        0x0000d02c:    9801        ..      LDR      r0,[sp,#4]
        0x0000d02e:    4928        (I      LDR      r1,[pc,#160] ; [0xd0d0] = 0x2faf081
        0x0000d030:    4288        .B      CMP      r0,r1
        0x0000d032:    d303        ..      BCC      0xd03c ; CLK_SetCoreClock + 32
        0x0000d034:    e7ff        ..      B        0xd036 ; CLK_SetCoreClock + 26
        0x0000d036:    4827        'H      LDR      r0,[pc,#156] ; [0xd0d4] = 0x2faf080
        0x0000d038:    9001        ..      STR      r0,[sp,#4]
        0x0000d03a:    e7ff        ..      B        0xd03c ; CLK_SetCoreClock + 32
        0x0000d03c:    9801        ..      LDR      r0,[sp,#4]
        0x0000d03e:    4926        &I      LDR      r1,[pc,#152] ; [0xd0d8] = 0x17d783f
        0x0000d040:    4288        .B      CMP      r0,r1
        0x0000d042:    d803        ..      BHI      0xd04c ; CLK_SetCoreClock + 48
        0x0000d044:    e7ff        ..      B        0xd046 ; CLK_SetCoreClock + 42
        0x0000d046:    4825        %H      LDR      r0,[pc,#148] ; [0xd0dc] = 0x17d7840
        0x0000d048:    9001        ..      STR      r0,[sp,#4]
        0x0000d04a:    e7ff        ..      B        0xd04c ; CLK_SetCoreClock + 48
        0x0000d04c:    4840        @H      LDR      r0,[pc,#256] ; [0xd150] = 0x50000200
        0x0000d04e:    6801        .h      LDR      r1,[r0,#0]
        0x0000d050:    2204        ."      MOVS     r2,#4
        0x0000d052:    4311        .C      ORRS     r1,r1,r2
        0x0000d054:    6001        .`      STR      r1,[r0,#0]
        0x0000d056:    e7ff        ..      B        0xd058 ; CLK_SetCoreClock + 60
        0x0000d058:    489e        .H      LDR      r0,[pc,#632] ; [0xd2d4] = 0x5000020c
        0x0000d05a:    6800        .h      LDR      r0,[r0,#0]
        0x0000d05c:    06c0        ..      LSLS     r0,r0,#27
        0x0000d05e:    2800        .(      CMP      r0,#0
        0x0000d060:    d401        ..      BMI      0xd066 ; CLK_SetCoreClock + 74
        0x0000d062:    e7ff        ..      B        0xd064 ; CLK_SetCoreClock + 72
        0x0000d064:    e7f8        ..      B        0xd058 ; CLK_SetCoreClock + 60
        0x0000d066:    4885        .H      LDR      r0,[pc,#532] ; [0xd27c] = 0x50000210
        0x0000d068:    6801        .h      LDR      r1,[r0,#0]
        0x0000d06a:    2207        ."      MOVS     r2,#7
        0x0000d06c:    4311        .C      ORRS     r1,r1,r2
        0x0000d06e:    6001        .`      STR      r1,[r0,#0]
        0x0000d070:    481b        .H      LDR      r0,[pc,#108] ; [0xd0e0] = 0x50000220
        0x0000d072:    6801        .h      LDR      r1,[r0,#0]
        0x0000d074:    2201        ."      MOVS     r2,#1
        0x0000d076:    0412        ..      LSLS     r2,r2,#16
        0x0000d078:    4311        .C      ORRS     r1,r1,r2
        0x0000d07a:    6001        .`      STR      r1,[r0,#0]
        0x0000d07c:    4895        .H      LDR      r0,[pc,#596] ; [0xd2d4] = 0x5000020c
        0x0000d07e:    6800        .h      LDR      r0,[r0,#0]
        0x0000d080:    07c0        ..      LSLS     r0,r0,#31
        0x0000d082:    2800        .(      CMP      r0,#0
        0x0000d084:    d006        ..      BEQ      0xd094 ; CLK_SetCoreClock + 120
        0x0000d086:    e7ff        ..      B        0xd088 ; CLK_SetCoreClock + 108
        0x0000d088:    9901        ..      LDR      r1,[sp,#4]
        0x0000d08a:    2000        .       MOVS     r0,#0
        0x0000d08c:    f7fffdbc    ....    BL       CLK_EnablePLL ; 0xcc08
        0x0000d090:    9001        ..      STR      r0,[sp,#4]
        0x0000d092:    e00b        ..      B        0xd0ac ; CLK_SetCoreClock + 144
        0x0000d094:    9901        ..      LDR      r1,[sp,#4]
        0x0000d096:    2001        .       MOVS     r0,#1
        0x0000d098:    04c0        ..      LSLS     r0,r0,#19
        0x0000d09a:    f7fffdb5    ....    BL       CLK_EnablePLL ; 0xcc08
        0x0000d09e:    9001        ..      STR      r0,[sp,#4]
        0x0000d0a0:    488c        .H      LDR      r0,[pc,#560] ; [0xd2d4] = 0x5000020c
        0x0000d0a2:    6800        .h      LDR      r0,[r0,#0]
        0x0000d0a4:    2110        .!      MOVS     r1,#0x10
        0x0000d0a6:    4008        .@      ANDS     r0,r0,r1
        0x0000d0a8:    9000        ..      STR      r0,[sp,#0]
        0x0000d0aa:    e7ff        ..      B        0xd0ac ; CLK_SetCoreClock + 144
        0x0000d0ac:    2002        .       MOVS     r0,#2
        0x0000d0ae:    2100        .!      MOVS     r1,#0
        0x0000d0b0:    f000f818    ....    BL       CLK_SetHCLK ; 0xd0e4
        0x0000d0b4:    9800        ..      LDR      r0,[sp,#0]
        0x0000d0b6:    2800        .(      CMP      r0,#0
        0x0000d0b8:    d106        ..      BNE      0xd0c8 ; CLK_SetCoreClock + 172
        0x0000d0ba:    e7ff        ..      B        0xd0bc ; CLK_SetCoreClock + 160
        0x0000d0bc:    4824        $H      LDR      r0,[pc,#144] ; [0xd150] = 0x50000200
        0x0000d0be:    6801        .h      LDR      r1,[r0,#0]
        0x0000d0c0:    2204        ."      MOVS     r2,#4
        0x0000d0c2:    4391        .C      BICS     r1,r1,r2
        0x0000d0c4:    6001        .`      STR      r1,[r0,#0]
        0x0000d0c6:    e7ff        ..      B        0xd0c8 ; CLK_SetCoreClock + 172
        0x0000d0c8:    9801        ..      LDR      r0,[sp,#4]
        0x0000d0ca:    b002        ..      ADD      sp,sp,#8
        0x0000d0cc:    bd80        ..      POP      {r7,pc}
        0x0000d0ce:    46c0        .F      MOV      r8,r8
    $d.25
    __arm_cp.12_1
        0x0000d0d0:    02faf081    ....    DCD    50000001
    __arm_cp.12_2
        0x0000d0d4:    02faf080    ....    DCD    50000000
    __arm_cp.12_3
        0x0000d0d8:    017d783f    ?x}.    DCD    24999999
    __arm_cp.12_4
        0x0000d0dc:    017d7840    @x}.    DCD    25000000
    __arm_cp.12_7
        0x0000d0e0:    50000220     ..P    DCD    1342177824
    $t.28
    CLK_SetHCLK
        0x0000d0e4:    b510        ..      PUSH     {r4,lr}
        0x0000d0e6:    b084        ..      SUB      sp,sp,#0x10
        0x0000d0e8:    9003        ..      STR      r0,[sp,#0xc]
        0x0000d0ea:    9102        ..      STR      r1,[sp,#8]
        0x0000d0ec:    4879        yH      LDR      r0,[pc,#484] ; [0xd2d4] = 0x5000020c
        0x0000d0ee:    6800        .h      LDR      r0,[r0,#0]
        0x0000d0f0:    2110        .!      MOVS     r1,#0x10
        0x0000d0f2:    4008        .@      ANDS     r0,r0,r1
        0x0000d0f4:    9001        ..      STR      r0,[sp,#4]
        0x0000d0f6:    4816        .H      LDR      r0,[pc,#88] ; [0xd150] = 0x50000200
        0x0000d0f8:    6801        .h      LDR      r1,[r0,#0]
        0x0000d0fa:    2204        ."      MOVS     r2,#4
        0x0000d0fc:    4311        .C      ORRS     r1,r1,r2
        0x0000d0fe:    6001        .`      STR      r1,[r0,#0]
        0x0000d100:    e7ff        ..      B        0xd102 ; CLK_SetHCLK + 30
        0x0000d102:    4874        tH      LDR      r0,[pc,#464] ; [0xd2d4] = 0x5000020c
        0x0000d104:    6800        .h      LDR      r0,[r0,#0]
        0x0000d106:    06c0        ..      LSLS     r0,r0,#27
        0x0000d108:    2800        .(      CMP      r0,#0
        0x0000d10a:    d401        ..      BMI      0xd110 ; CLK_SetHCLK + 44
        0x0000d10c:    e7ff        ..      B        0xd10e ; CLK_SetHCLK + 42
        0x0000d10e:    e7f8        ..      B        0xd102 ; CLK_SetHCLK + 30
        0x0000d110:    485a        ZH      LDR      r0,[pc,#360] ; [0xd27c] = 0x50000210
        0x0000d112:    6801        .h      LDR      r1,[r0,#0]
        0x0000d114:    2207        ."      MOVS     r2,#7
        0x0000d116:    4311        .C      ORRS     r1,r1,r2
        0x0000d118:    6001        .`      STR      r1,[r0,#0]
        0x0000d11a:    495e        ^I      LDR      r1,[pc,#376] ; [0xd294] = 0x50000218
        0x0000d11c:    680b        .h      LDR      r3,[r1,#0]
        0x0000d11e:    240f        .$      MOVS     r4,#0xf
        0x0000d120:    43a3        .C      BICS     r3,r3,r4
        0x0000d122:    9c02        ..      LDR      r4,[sp,#8]
        0x0000d124:    4323        #C      ORRS     r3,r3,r4
        0x0000d126:    600b        .`      STR      r3,[r1,#0]
        0x0000d128:    6801        .h      LDR      r1,[r0,#0]
        0x0000d12a:    4391        .C      BICS     r1,r1,r2
        0x0000d12c:    9a03        ..      LDR      r2,[sp,#0xc]
        0x0000d12e:    4311        .C      ORRS     r1,r1,r2
        0x0000d130:    6001        .`      STR      r1,[r0,#0]
        0x0000d132:    f000fab1    ....    BL       SystemCoreClockUpdate ; 0xd698
        0x0000d136:    9801        ..      LDR      r0,[sp,#4]
        0x0000d138:    2800        .(      CMP      r0,#0
        0x0000d13a:    d106        ..      BNE      0xd14a ; CLK_SetHCLK + 102
        0x0000d13c:    e7ff        ..      B        0xd13e ; CLK_SetHCLK + 90
        0x0000d13e:    4804        .H      LDR      r0,[pc,#16] ; [0xd150] = 0x50000200
        0x0000d140:    6801        .h      LDR      r1,[r0,#0]
        0x0000d142:    2204        ."      MOVS     r2,#4
        0x0000d144:    4391        .C      BICS     r1,r1,r2
        0x0000d146:    6001        .`      STR      r1,[r0,#0]
        0x0000d148:    e7ff        ..      B        0xd14a ; CLK_SetHCLK + 102
        0x0000d14a:    b004        ..      ADD      sp,sp,#0x10
        0x0000d14c:    bd10        ..      POP      {r4,pc}
        0x0000d14e:    46c0        .F      MOV      r8,r8
    $d.29
    __arm_cp.14_1
        0x0000d150:    50000200    ...P    DCD    1342177792
    $t.8
    CLK_SetModuleClock
        0x0000d154:    b08b        ..      SUB      sp,sp,#0x2c
        0x0000d156:    900a        ..      STR      r0,[sp,#0x28]
        0x0000d158:    9109        ..      STR      r1,[sp,#0x24]
        0x0000d15a:    9208        ..      STR      r2,[sp,#0x20]
        0x0000d15c:    2000        .       MOVS     r0,#0
        0x0000d15e:    9007        ..      STR      r0,[sp,#0x1c]
        0x0000d160:    9006        ..      STR      r0,[sp,#0x18]
        0x0000d162:    4844        DH      LDR      r0,[pc,#272] ; [0xd274] = 0xe668
        0x0000d164:    68c1        .h      LDR      r1,[r0,#0xc]
        0x0000d166:    9105        ..      STR      r1,[sp,#0x14]
        0x0000d168:    6881        .h      LDR      r1,[r0,#8]
        0x0000d16a:    9104        ..      STR      r1,[sp,#0x10]
        0x0000d16c:    6841        Ah      LDR      r1,[r0,#4]
        0x0000d16e:    9103        ..      STR      r1,[sp,#0xc]
        0x0000d170:    6800        .h      LDR      r0,[r0,#0]
        0x0000d172:    9002        ..      STR      r0,[sp,#8]
        0x0000d174:    4840        @H      LDR      r0,[pc,#256] ; [0xd278] = 0xe6e8
        0x0000d176:    6841        Ah      LDR      r1,[r0,#4]
        0x0000d178:    9101        ..      STR      r1,[sp,#4]
        0x0000d17a:    6800        .h      LDR      r0,[r0,#0]
        0x0000d17c:    9000        ..      STR      r0,[sp,#0]
        0x0000d17e:    980a        ..      LDR      r0,[sp,#0x28]
        0x0000d180:    0100        ..      LSLS     r0,r0,#4
        0x0000d182:    0f40        @.      LSRS     r0,r0,#29
        0x0000d184:    2800        .(      CMP      r0,#0
        0x0000d186:    d056        V.      BEQ      0xd236 ; CLK_SetModuleClock + 226
        0x0000d188:    e7ff        ..      B        0xd18a ; CLK_SetModuleClock + 54
        0x0000d18a:    980a        ..      LDR      r0,[sp,#0x28]
        0x0000d18c:    0e80        ..      LSRS     r0,r0,#26
        0x0000d18e:    210c        .!      MOVS     r1,#0xc
        0x0000d190:    4008        .@      ANDS     r0,r0,r1
        0x0000d192:    a902        ..      ADD      r1,sp,#8
        0x0000d194:    5808        .X      LDR      r0,[r1,r0]
        0x0000d196:    4939        9I      LDR      r1,[pc,#228] ; [0xd27c] = 0x50000210
        0x0000d198:    1840        @.      ADDS     r0,r0,r1
        0x0000d19a:    9007        ..      STR      r0,[sp,#0x1c]
        0x0000d19c:    9807        ..      LDR      r0,[sp,#0x1c]
        0x0000d19e:    6800        .h      LDR      r0,[r0,#0]
        0x0000d1a0:    990a        ..      LDR      r1,[sp,#0x28]
        0x0000d1a2:    010a        ..      LSLS     r2,r1,#4
        0x0000d1a4:    0f52        R.      LSRS     r2,r2,#29
        0x0000d1a6:    01c9        ..      LSLS     r1,r1,#7
        0x0000d1a8:    0ec9        ..      LSRS     r1,r1,#27
        0x0000d1aa:    408a        .@      LSLS     r2,r2,r1
        0x0000d1ac:    4390        .C      BICS     r0,r0,r2
        0x0000d1ae:    9909        ..      LDR      r1,[sp,#0x24]
        0x0000d1b0:    4308        .C      ORRS     r0,r0,r1
        0x0000d1b2:    9907        ..      LDR      r1,[sp,#0x1c]
        0x0000d1b4:    6008        .`      STR      r0,[r1,#0]
        0x0000d1b6:    980a        ..      LDR      r0,[sp,#0x28]
        0x0000d1b8:    4931        1I      LDR      r1,[pc,#196] ; [0xd280] = 0x57c00014
        0x0000d1ba:    4288        .B      CMP      r0,r1
        0x0000d1bc:    d10a        ..      BNE      0xd1d4 ; CLK_SetModuleClock + 128
        0x0000d1be:    e7ff        ..      B        0xd1c0 ; CLK_SetModuleClock + 108
        0x0000d1c0:    4833        3H      LDR      r0,[pc,#204] ; [0xd290] = 0x5000021c
        0x0000d1c2:    6801        .h      LDR      r1,[r0,#0]
        0x0000d1c4:    2201        ."      MOVS     r2,#1
        0x0000d1c6:    0212        ..      LSLS     r2,r2,#8
        0x0000d1c8:    4391        .C      BICS     r1,r1,r2
        0x0000d1ca:    9b09        ..      LDR      r3,[sp,#0x24]
        0x0000d1cc:    4013        .@      ANDS     r3,r3,r2
        0x0000d1ce:    18c9        ..      ADDS     r1,r1,r3
        0x0000d1d0:    6001        .`      STR      r1,[r0,#0]
        0x0000d1d2:    e02f        /.      B        0xd234 ; CLK_SetModuleClock + 224
        0x0000d1d4:    980a        ..      LDR      r0,[sp,#0x28]
        0x0000d1d6:    492b        +I      LDR      r1,[pc,#172] ; [0xd284] = 0x57e00015
        0x0000d1d8:    4288        .B      CMP      r0,r1
        0x0000d1da:    d10a        ..      BNE      0xd1f2 ; CLK_SetModuleClock + 158
        0x0000d1dc:    e7ff        ..      B        0xd1de ; CLK_SetModuleClock + 138
        0x0000d1de:    482c        ,H      LDR      r0,[pc,#176] ; [0xd290] = 0x5000021c
        0x0000d1e0:    6801        .h      LDR      r1,[r0,#0]
        0x0000d1e2:    2201        ."      MOVS     r2,#1
        0x0000d1e4:    0252        R.      LSLS     r2,r2,#9
        0x0000d1e6:    4391        .C      BICS     r1,r1,r2
        0x0000d1e8:    9b09        ..      LDR      r3,[sp,#0x24]
        0x0000d1ea:    4013        .@      ANDS     r3,r3,r2
        0x0000d1ec:    18c9        ..      ADDS     r1,r1,r3
        0x0000d1ee:    6001        .`      STR      r1,[r0,#0]
        0x0000d1f0:    e01f        ..      B        0xd232 ; CLK_SetModuleClock + 222
        0x0000d1f2:    980a        ..      LDR      r0,[sp,#0x28]
        0x0000d1f4:    4924        $I      LDR      r1,[pc,#144] ; [0xd288] = 0x66400016
        0x0000d1f6:    4288        .B      CMP      r0,r1
        0x0000d1f8:    d10a        ..      BNE      0xd210 ; CLK_SetModuleClock + 188
        0x0000d1fa:    e7ff        ..      B        0xd1fc ; CLK_SetModuleClock + 168
        0x0000d1fc:    4824        $H      LDR      r0,[pc,#144] ; [0xd290] = 0x5000021c
        0x0000d1fe:    6801        .h      LDR      r1,[r0,#0]
        0x0000d200:    2201        ."      MOVS     r2,#1
        0x0000d202:    0292        ..      LSLS     r2,r2,#10
        0x0000d204:    4391        .C      BICS     r1,r1,r2
        0x0000d206:    9b09        ..      LDR      r3,[sp,#0x24]
        0x0000d208:    4013        .@      ANDS     r3,r3,r2
        0x0000d20a:    18c9        ..      ADDS     r1,r1,r3
        0x0000d20c:    6001        .`      STR      r1,[r0,#0]
        0x0000d20e:    e00f        ..      B        0xd230 ; CLK_SetModuleClock + 220
        0x0000d210:    980a        ..      LDR      r0,[sp,#0x28]
        0x0000d212:    491e        .I      LDR      r1,[pc,#120] ; [0xd28c] = 0x66600017
        0x0000d214:    4288        .B      CMP      r0,r1
        0x0000d216:    d10a        ..      BNE      0xd22e ; CLK_SetModuleClock + 218
        0x0000d218:    e7ff        ..      B        0xd21a ; CLK_SetModuleClock + 198
        0x0000d21a:    481d        .H      LDR      r0,[pc,#116] ; [0xd290] = 0x5000021c
        0x0000d21c:    6801        .h      LDR      r1,[r0,#0]
        0x0000d21e:    2201        ."      MOVS     r2,#1
        0x0000d220:    02d2        ..      LSLS     r2,r2,#11
        0x0000d222:    4391        .C      BICS     r1,r1,r2
        0x0000d224:    9b09        ..      LDR      r3,[sp,#0x24]
        0x0000d226:    4013        .@      ANDS     r3,r3,r2
        0x0000d228:    18c9        ..      ADDS     r1,r1,r3
        0x0000d22a:    6001        .`      STR      r1,[r0,#0]
        0x0000d22c:    e7ff        ..      B        0xd22e ; CLK_SetModuleClock + 218
        0x0000d22e:    e7ff        ..      B        0xd230 ; CLK_SetModuleClock + 220
        0x0000d230:    e7ff        ..      B        0xd232 ; CLK_SetModuleClock + 222
        0x0000d232:    e7ff        ..      B        0xd234 ; CLK_SetModuleClock + 224
        0x0000d234:    e7ff        ..      B        0xd236 ; CLK_SetModuleClock + 226
        0x0000d236:    980a        ..      LDR      r0,[sp,#0x28]
        0x0000d238:    0a80        ..      LSRS     r0,r0,#10
        0x0000d23a:    0600        ..      LSLS     r0,r0,#24
        0x0000d23c:    2800        .(      CMP      r0,#0
        0x0000d23e:    d017        ..      BEQ      0xd270 ; CLK_SetModuleClock + 284
        0x0000d240:    e7ff        ..      B        0xd242 ; CLK_SetModuleClock + 238
        0x0000d242:    a80a        ..      ADD      r0,sp,#0x28
        0x0000d244:    8840        @.      LDRH     r0,[r0,#2]
        0x0000d246:    210c        .!      MOVS     r1,#0xc
        0x0000d248:    4008        .@      ANDS     r0,r0,r1
        0x0000d24a:    4669        iF      MOV      r1,sp
        0x0000d24c:    5808        .X      LDR      r0,[r1,r0]
        0x0000d24e:    4911        .I      LDR      r1,[pc,#68] ; [0xd294] = 0x50000218
        0x0000d250:    1840        @.      ADDS     r0,r0,r1
        0x0000d252:    9006        ..      STR      r0,[sp,#0x18]
        0x0000d254:    9806        ..      LDR      r0,[sp,#0x18]
        0x0000d256:    6800        .h      LDR      r0,[r0,#0]
        0x0000d258:    990a        ..      LDR      r1,[sp,#0x28]
        0x0000d25a:    0a8a        ..      LSRS     r2,r1,#10
        0x0000d25c:    b2d2        ..      UXTB     r2,r2
        0x0000d25e:    0589        ..      LSLS     r1,r1,#22
        0x0000d260:    0ec9        ..      LSRS     r1,r1,#27
        0x0000d262:    408a        .@      LSLS     r2,r2,r1
        0x0000d264:    4390        .C      BICS     r0,r0,r2
        0x0000d266:    9908        ..      LDR      r1,[sp,#0x20]
        0x0000d268:    4308        .C      ORRS     r0,r0,r1
        0x0000d26a:    9906        ..      LDR      r1,[sp,#0x18]
        0x0000d26c:    6008        .`      STR      r0,[r1,#0]
        0x0000d26e:    e7ff        ..      B        0xd270 ; CLK_SetModuleClock + 284
        0x0000d270:    b00b        ..      ADD      sp,sp,#0x2c
        0x0000d272:    4770        pG      BX       lr
    $d.9
    __arm_cp.4_0
        0x0000d274:    0000e668    h...    DCD    58984
    __arm_cp.4_1
        0x0000d278:    0000e6e8    ....    DCD    59112
    __arm_cp.4_2
        0x0000d27c:    50000210    ...P    DCD    1342177808
    __arm_cp.4_3
        0x0000d280:    57c00014    ...W    DCD    1472200724
    __arm_cp.4_4
        0x0000d284:    57e00015    ...W    DCD    1474297877
    __arm_cp.4_5
        0x0000d288:    66400016    ..@f    DCD    1715470358
    __arm_cp.4_6
        0x0000d28c:    66600017    ..`f    DCD    1717567511
    __arm_cp.4_7
        0x0000d290:    5000021c    ...P    DCD    1342177820
    __arm_cp.4_8
        0x0000d294:    50000218    ...P    DCD    1342177816
    $t.36
    CLK_WaitClockReady
        0x0000d298:    b083        ..      SUB      sp,sp,#0xc
        0x0000d29a:    9001        ..      STR      r0,[sp,#4]
        0x0000d29c:    480c        .H      LDR      r0,[pc,#48] ; [0xd2d0] = 0x124f80
        0x0000d29e:    9000        ..      STR      r0,[sp,#0]
        0x0000d2a0:    e7ff        ..      B        0xd2a2 ; CLK_WaitClockReady + 10
        0x0000d2a2:    480c        .H      LDR      r0,[pc,#48] ; [0xd2d4] = 0x5000020c
        0x0000d2a4:    6800        .h      LDR      r0,[r0,#0]
        0x0000d2a6:    9901        ..      LDR      r1,[sp,#4]
        0x0000d2a8:    4008        .@      ANDS     r0,r0,r1
        0x0000d2aa:    4288        .B      CMP      r0,r1
        0x0000d2ac:    d00a        ..      BEQ      0xd2c4 ; CLK_WaitClockReady + 44
        0x0000d2ae:    e7ff        ..      B        0xd2b0 ; CLK_WaitClockReady + 24
        0x0000d2b0:    9800        ..      LDR      r0,[sp,#0]
        0x0000d2b2:    1e41        A.      SUBS     r1,r0,#1
        0x0000d2b4:    9100        ..      STR      r1,[sp,#0]
        0x0000d2b6:    2800        .(      CMP      r0,#0
        0x0000d2b8:    dc03        ..      BGT      0xd2c2 ; CLK_WaitClockReady + 42
        0x0000d2ba:    e7ff        ..      B        0xd2bc ; CLK_WaitClockReady + 36
        0x0000d2bc:    2000        .       MOVS     r0,#0
        0x0000d2be:    9002        ..      STR      r0,[sp,#8]
        0x0000d2c0:    e003        ..      B        0xd2ca ; CLK_WaitClockReady + 50
        0x0000d2c2:    e7ee        ..      B        0xd2a2 ; CLK_WaitClockReady + 10
        0x0000d2c4:    2001        .       MOVS     r0,#1
        0x0000d2c6:    9002        ..      STR      r0,[sp,#8]
        0x0000d2c8:    e7ff        ..      B        0xd2ca ; CLK_WaitClockReady + 50
        0x0000d2ca:    9802        ..      LDR      r0,[sp,#8]
        0x0000d2cc:    b003        ..      ADD      sp,sp,#0xc
        0x0000d2ce:    4770        pG      BX       lr
    $d.37
    __arm_cp.18_0
        0x0000d2d0:    00124f80    .O..    DCD    1200000
    __arm_cp.18_1
        0x0000d2d4:    5000020c    ...P    DCD    1342177804
    $t.6
    FMC_Erase
        0x0000d2d8:    b082        ..      SUB      sp,sp,#8
        0x0000d2da:    9000        ..      STR      r0,[sp,#0]
        0x0000d2dc:    483b        ;H      LDR      r0,[pc,#236] ; [0xd3cc] = 0x5000c00c
        0x0000d2de:    2122        "!      MOVS     r1,#0x22
        0x0000d2e0:    6001        .`      STR      r1,[r0,#0]
        0x0000d2e2:    9800        ..      LDR      r0,[sp,#0]
        0x0000d2e4:    493a        :I      LDR      r1,[pc,#232] ; [0xd3d0] = 0x5000c004
        0x0000d2e6:    6008        .`      STR      r0,[r1,#0]
        0x0000d2e8:    483b        ;H      LDR      r0,[pc,#236] ; [0xd3d8] = 0x5000c010
        0x0000d2ea:    2101        .!      MOVS     r1,#1
        0x0000d2ec:    6001        .`      STR      r1,[r0,#0]
        0x0000d2ee:    f3bf8f6f    ..o.    ISB      
        0x0000d2f2:    e7ff        ..      B        0xd2f4 ; FMC_Erase + 28
        0x0000d2f4:    4838        8H      LDR      r0,[pc,#224] ; [0xd3d8] = 0x5000c010
        0x0000d2f6:    6800        .h      LDR      r0,[r0,#0]
        0x0000d2f8:    2800        .(      CMP      r0,#0
        0x0000d2fa:    d001        ..      BEQ      0xd300 ; FMC_Erase + 40
        0x0000d2fc:    e7ff        ..      B        0xd2fe ; FMC_Erase + 38
        0x0000d2fe:    e7f9        ..      B        0xd2f4 ; FMC_Erase + 28
        0x0000d300:    480d        .H      LDR      r0,[pc,#52] ; [0xd338] = 0x5000c000
        0x0000d302:    6800        .h      LDR      r0,[r0,#0]
        0x0000d304:    0640        @.      LSLS     r0,r0,#25
        0x0000d306:    2800        .(      CMP      r0,#0
        0x0000d308:    d509        ..      BPL      0xd31e ; FMC_Erase + 70
        0x0000d30a:    e7ff        ..      B        0xd30c ; FMC_Erase + 52
        0x0000d30c:    480a        .H      LDR      r0,[pc,#40] ; [0xd338] = 0x5000c000
        0x0000d30e:    6801        .h      LDR      r1,[r0,#0]
        0x0000d310:    2240        @"      MOVS     r2,#0x40
        0x0000d312:    4311        .C      ORRS     r1,r1,r2
        0x0000d314:    6001        .`      STR      r1,[r0,#0]
        0x0000d316:    2000        .       MOVS     r0,#0
        0x0000d318:    43c0        .C      MVNS     r0,r0
        0x0000d31a:    9001        ..      STR      r0,[sp,#4]
        0x0000d31c:    e002        ..      B        0xd324 ; FMC_Erase + 76
        0x0000d31e:    2000        .       MOVS     r0,#0
        0x0000d320:    9001        ..      STR      r0,[sp,#4]
        0x0000d322:    e7ff        ..      B        0xd324 ; FMC_Erase + 76
        0x0000d324:    9801        ..      LDR      r0,[sp,#4]
        0x0000d326:    b002        ..      ADD      sp,sp,#8
        0x0000d328:    4770        pG      BX       lr
        0x0000d32a:    46c0        .F      MOV      r8,r8
    FMC_Open
        0x0000d32c:    4802        .H      LDR      r0,[pc,#8] ; [0xd338] = 0x5000c000
        0x0000d32e:    6801        .h      LDR      r1,[r0,#0]
        0x0000d330:    2201        ."      MOVS     r2,#1
        0x0000d332:    4311        .C      ORRS     r1,r1,r2
        0x0000d334:    6001        .`      STR      r1,[r0,#0]
        0x0000d336:    4770        pG      BX       lr
    $d.19
    __arm_cp.9_0
        0x0000d338:    5000c000    ...P    DCD    1342226432
    $t.12
    FMC_Read
        0x0000d33c:    b081        ..      SUB      sp,sp,#4
        0x0000d33e:    9000        ..      STR      r0,[sp,#0]
        0x0000d340:    4822        "H      LDR      r0,[pc,#136] ; [0xd3cc] = 0x5000c00c
        0x0000d342:    2100        .!      MOVS     r1,#0
        0x0000d344:    6001        .`      STR      r1,[r0,#0]
        0x0000d346:    9800        ..      LDR      r0,[sp,#0]
        0x0000d348:    4921        !I      LDR      r1,[pc,#132] ; [0xd3d0] = 0x5000c004
        0x0000d34a:    6008        .`      STR      r0,[r1,#0]
        0x0000d34c:    4822        "H      LDR      r0,[pc,#136] ; [0xd3d8] = 0x5000c010
        0x0000d34e:    2101        .!      MOVS     r1,#1
        0x0000d350:    6001        .`      STR      r1,[r0,#0]
        0x0000d352:    f3bf8f6f    ..o.    ISB      
        0x0000d356:    e7ff        ..      B        0xd358 ; FMC_Read + 28
        0x0000d358:    481f        .H      LDR      r0,[pc,#124] ; [0xd3d8] = 0x5000c010
        0x0000d35a:    6800        .h      LDR      r0,[r0,#0]
        0x0000d35c:    2800        .(      CMP      r0,#0
        0x0000d35e:    d001        ..      BEQ      0xd364 ; FMC_Read + 40
        0x0000d360:    e7ff        ..      B        0xd362 ; FMC_Read + 38
        0x0000d362:    e7f9        ..      B        0xd358 ; FMC_Read + 28
        0x0000d364:    481b        .H      LDR      r0,[pc,#108] ; [0xd3d4] = 0x5000c008
        0x0000d366:    6800        .h      LDR      r0,[r0,#0]
        0x0000d368:    b001        ..      ADD      sp,sp,#4
        0x0000d36a:    4770        pG      BX       lr
    FMC_SetVectorPageAddr
        0x0000d36c:    b081        ..      SUB      sp,sp,#4
        0x0000d36e:    9000        ..      STR      r0,[sp,#0]
        0x0000d370:    4816        .H      LDR      r0,[pc,#88] ; [0xd3cc] = 0x5000c00c
        0x0000d372:    212e        .!      MOVS     r1,#0x2e
        0x0000d374:    6001        .`      STR      r1,[r0,#0]
        0x0000d376:    9800        ..      LDR      r0,[sp,#0]
        0x0000d378:    4915        .I      LDR      r1,[pc,#84] ; [0xd3d0] = 0x5000c004
        0x0000d37a:    6008        .`      STR      r0,[r1,#0]
        0x0000d37c:    4816        .H      LDR      r0,[pc,#88] ; [0xd3d8] = 0x5000c010
        0x0000d37e:    2101        .!      MOVS     r1,#1
        0x0000d380:    6001        .`      STR      r1,[r0,#0]
        0x0000d382:    f3bf8f6f    ..o.    ISB      
        0x0000d386:    e7ff        ..      B        0xd388 ; FMC_SetVectorPageAddr + 28
        0x0000d388:    4813        .H      LDR      r0,[pc,#76] ; [0xd3d8] = 0x5000c010
        0x0000d38a:    6800        .h      LDR      r0,[r0,#0]
        0x0000d38c:    2800        .(      CMP      r0,#0
        0x0000d38e:    d001        ..      BEQ      0xd394 ; FMC_SetVectorPageAddr + 40
        0x0000d390:    e7ff        ..      B        0xd392 ; FMC_SetVectorPageAddr + 38
        0x0000d392:    e7f9        ..      B        0xd388 ; FMC_SetVectorPageAddr + 28
        0x0000d394:    b001        ..      ADD      sp,sp,#4
        0x0000d396:    4770        pG      BX       lr
    FMC_Write
        0x0000d398:    b082        ..      SUB      sp,sp,#8
        0x0000d39a:    9001        ..      STR      r0,[sp,#4]
        0x0000d39c:    9100        ..      STR      r1,[sp,#0]
        0x0000d39e:    480b        .H      LDR      r0,[pc,#44] ; [0xd3cc] = 0x5000c00c
        0x0000d3a0:    2121        !!      MOVS     r1,#0x21
        0x0000d3a2:    6001        .`      STR      r1,[r0,#0]
        0x0000d3a4:    9801        ..      LDR      r0,[sp,#4]
        0x0000d3a6:    490a        .I      LDR      r1,[pc,#40] ; [0xd3d0] = 0x5000c004
        0x0000d3a8:    6008        .`      STR      r0,[r1,#0]
        0x0000d3aa:    9800        ..      LDR      r0,[sp,#0]
        0x0000d3ac:    4909        .I      LDR      r1,[pc,#36] ; [0xd3d4] = 0x5000c008
        0x0000d3ae:    6008        .`      STR      r0,[r1,#0]
        0x0000d3b0:    4809        .H      LDR      r0,[pc,#36] ; [0xd3d8] = 0x5000c010
        0x0000d3b2:    2101        .!      MOVS     r1,#1
        0x0000d3b4:    6001        .`      STR      r1,[r0,#0]
        0x0000d3b6:    f3bf8f6f    ..o.    ISB      
        0x0000d3ba:    e7ff        ..      B        0xd3bc ; FMC_Write + 36
        0x0000d3bc:    4806        .H      LDR      r0,[pc,#24] ; [0xd3d8] = 0x5000c010
        0x0000d3be:    6800        .h      LDR      r0,[r0,#0]
        0x0000d3c0:    2800        .(      CMP      r0,#0
        0x0000d3c2:    d001        ..      BEQ      0xd3c8 ; FMC_Write + 48
        0x0000d3c4:    e7ff        ..      B        0xd3c6 ; FMC_Write + 46
        0x0000d3c6:    e7f9        ..      B        0xd3bc ; FMC_Write + 36
        0x0000d3c8:    b002        ..      ADD      sp,sp,#8
        0x0000d3ca:    4770        pG      BX       lr
    $d.9
    __arm_cp.5_0
        0x0000d3cc:    5000c00c    ...P    DCD    1342226444
    __arm_cp.5_1
        0x0000d3d0:    5000c004    ...P    DCD    1342226436
    __arm_cp.5_2
        0x0000d3d4:    5000c008    ...P    DCD    1342226440
    __arm_cp.5_3
        0x0000d3d8:    5000c010    ...P    DCD    1342226448
    $t.0
    GPIO_SetMode
        0x0000d3dc:    b084        ..      SUB      sp,sp,#0x10
        0x0000d3de:    9003        ..      STR      r0,[sp,#0xc]
        0x0000d3e0:    9102        ..      STR      r1,[sp,#8]
        0x0000d3e2:    9201        ..      STR      r2,[sp,#4]
        0x0000d3e4:    2000        .       MOVS     r0,#0
        0x0000d3e6:    9000        ..      STR      r0,[sp,#0]
        0x0000d3e8:    e7ff        ..      B        0xd3ea ; GPIO_SetMode + 14
        0x0000d3ea:    9800        ..      LDR      r0,[sp,#0]
        0x0000d3ec:    280f        .(      CMP      r0,#0xf
        0x0000d3ee:    d819        ..      BHI      0xd424 ; GPIO_SetMode + 72
        0x0000d3f0:    e7ff        ..      B        0xd3f2 ; GPIO_SetMode + 22
        0x0000d3f2:    9802        ..      LDR      r0,[sp,#8]
        0x0000d3f4:    9900        ..      LDR      r1,[sp,#0]
        0x0000d3f6:    40c8        .@      LSRS     r0,r0,r1
        0x0000d3f8:    07c0        ..      LSLS     r0,r0,#31
        0x0000d3fa:    2800        .(      CMP      r0,#0
        0x0000d3fc:    d00d        ..      BEQ      0xd41a ; GPIO_SetMode + 62
        0x0000d3fe:    e7ff        ..      B        0xd400 ; GPIO_SetMode + 36
        0x0000d400:    9803        ..      LDR      r0,[sp,#0xc]
        0x0000d402:    6800        .h      LDR      r0,[r0,#0]
        0x0000d404:    9900        ..      LDR      r1,[sp,#0]
        0x0000d406:    0049        I.      LSLS     r1,r1,#1
        0x0000d408:    2203        ."      MOVS     r2,#3
        0x0000d40a:    408a        .@      LSLS     r2,r2,r1
        0x0000d40c:    4390        .C      BICS     r0,r0,r2
        0x0000d40e:    9a01        ..      LDR      r2,[sp,#4]
        0x0000d410:    408a        .@      LSLS     r2,r2,r1
        0x0000d412:    4310        .C      ORRS     r0,r0,r2
        0x0000d414:    9903        ..      LDR      r1,[sp,#0xc]
        0x0000d416:    6008        .`      STR      r0,[r1,#0]
        0x0000d418:    e7ff        ..      B        0xd41a ; GPIO_SetMode + 62
        0x0000d41a:    e7ff        ..      B        0xd41c ; GPIO_SetMode + 64
        0x0000d41c:    9800        ..      LDR      r0,[sp,#0]
        0x0000d41e:    1c40        @.      ADDS     r0,r0,#1
        0x0000d420:    9000        ..      STR      r0,[sp,#0]
        0x0000d422:    e7e2        ..      B        0xd3ea ; GPIO_SetMode + 14
        0x0000d424:    b004        ..      ADD      sp,sp,#0x10
        0x0000d426:    4770        pG      BX       lr
    HardFault_Handler
        0x0000d428:    4806        .H      LDR      r0,[pc,#24] ; [0xd444] = 0xd449
        0x0000d42a:    2004        .       MOVS     r0,#4
        0x0000d42c:    4671        qF      MOV      r1,lr
        0x0000d42e:    4208        .B      TST      r0,r1
        0x0000d430:    d003        ..      BEQ      0xd43a ; HardFault_Handler + 18
        0x0000d432:    f3ef8009    ....    MRS      r0,PSP
        0x0000d436:    4671        qF      MOV      r1,lr
        0x0000d438:    e006        ..      B        Hard_Fault_Handler ; 0xd448
        0x0000d43a:    f3ef8008    ....    MRS      r0,MSP
        0x0000d43e:    e003        ..      B        Hard_Fault_Handler ; 0xd448
        0x0000d440:    e7ff        ..      B        0xd442 ; HardFault_Handler + 26
        0x0000d442:    e7fe        ..      B        0xd442 ; HardFault_Handler + 26
    $d.5
    __arm_cp.2_0
        0x0000d444:    0000d449    I...    DCD    54345
    $t.0
    Hard_Fault_Handler
        0x0000d448:    b580        ..      PUSH     {r7,lr}
        0x0000d44a:    b082        ..      SUB      sp,sp,#8
        0x0000d44c:    9001        ..      STR      r0,[sp,#4]
        0x0000d44e:    4805        .H      LDR      r0,[pc,#20] ; [0xd464] = 0xe791
        0x0000d450:    f000fc7e    ..~.    BL       __0printf ; 0xdd50
        0x0000d454:    9901        ..      LDR      r1,[sp,#4]
        0x0000d456:    9000        ..      STR      r0,[sp,#0]
        0x0000d458:    4608        .F      MOV      r0,r1
        0x0000d45a:    f000fc2d    ..-.    BL       stackDump ; 0xdcb8
        0x0000d45e:    e7ff        ..      B        0xd460 ; Hard_Fault_Handler + 24
        0x0000d460:    e7fe        ..      B        0xd460 ; Hard_Fault_Handler + 24
        0x0000d462:    46c0        .F      MOV      r8,r8
    $d.1
    __arm_cp.0_0
        0x0000d464:    0000e791    ....    DCD    59281
    $t.11
    NVIC_EnableIRQ
        0x0000d468:    b081        ..      SUB      sp,sp,#4
        0x0000d46a:    4601        .F      MOV      r1,r0
        0x0000d46c:    466a        jF      MOV      r2,sp
        0x0000d46e:    7010        .p      STRB     r0,[r2,#0]
        0x0000d470:    7810        .x      LDRB     r0,[r2,#0]
        0x0000d472:    221f        ."      MOVS     r2,#0x1f
        0x0000d474:    4010        .@      ANDS     r0,r0,r2
        0x0000d476:    2201        ."      MOVS     r2,#1
        0x0000d478:    4082        .@      LSLS     r2,r2,r0
        0x0000d47a:    4802        .H      LDR      r0,[pc,#8] ; [0xd484] = 0xe000e100
        0x0000d47c:    6002        .`      STR      r2,[r0,#0]
        0x0000d47e:    b001        ..      ADD      sp,sp,#4
        0x0000d480:    4770        pG      BX       lr
        0x0000d482:    46c0        .F      MOV      r8,r8
    $d.12
    __arm_cp.6_0
        0x0000d484:    e000e100    ....    DCD    3758153984
    $t.9
    NVIC_SetPriority
        0x0000d488:    b570        p.      PUSH     {r4-r6,lr}
        0x0000d48a:    b082        ..      SUB      sp,sp,#8
        0x0000d48c:    4602        .F      MOV      r2,r0
        0x0000d48e:    ab01        ..      ADD      r3,sp,#4
        0x0000d490:    7018        .p      STRB     r0,[r3,#0]
        0x0000d492:    9100        ..      STR      r1,[sp,#0]
        0x0000d494:    7818        .x      LDRB     r0,[r3,#0]
        0x0000d496:    b240        @.      SXTB     r0,r0
        0x0000d498:    2800        .(      CMP      r0,#0
        0x0000d49a:    d51b        ..      BPL      0xd4d4 ; NVIC_SetPriority + 76
        0x0000d49c:    e7ff        ..      B        0xd49e ; NVIC_SetPriority + 22
        0x0000d49e:    a801        ..      ADD      r0,sp,#4
        0x0000d4a0:    7801        .x      LDRB     r1,[r0,#0]
        0x0000d4a2:    220f        ."      MOVS     r2,#0xf
        0x0000d4a4:    4011        .@      ANDS     r1,r1,r2
        0x0000d4a6:    3908        .9      SUBS     r1,r1,#8
        0x0000d4a8:    2303        .#      MOVS     r3,#3
        0x0000d4aa:    43db        .C      MVNS     r3,r3
        0x0000d4ac:    4019        .@      ANDS     r1,r1,r3
        0x0000d4ae:    4c17        .L      LDR      r4,[pc,#92] ; [0xd50c] = 0xe000ed1c
        0x0000d4b0:    5909        .Y      LDR      r1,[r1,r4]
        0x0000d4b2:    7800        .x      LDRB     r0,[r0,#0]
        0x0000d4b4:    b240        @.      SXTB     r0,r0
        0x0000d4b6:    0785        ..      LSLS     r5,r0,#30
        0x0000d4b8:    0eed        ..      LSRS     r5,r5,#27
        0x0000d4ba:    26ff        .&      MOVS     r6,#0xff
        0x0000d4bc:    40ae        .@      LSLS     r6,r6,r5
        0x0000d4be:    43b1        .C      BICS     r1,r1,r6
        0x0000d4c0:    9e00        ..      LDR      r6,[sp,#0]
        0x0000d4c2:    01b6        ..      LSLS     r6,r6,#6
        0x0000d4c4:    b2f6        ..      UXTB     r6,r6
        0x0000d4c6:    40ae        .@      LSLS     r6,r6,r5
        0x0000d4c8:    4331        1C      ORRS     r1,r1,r6
        0x0000d4ca:    4010        .@      ANDS     r0,r0,r2
        0x0000d4cc:    3808        .8      SUBS     r0,r0,#8
        0x0000d4ce:    4018        .@      ANDS     r0,r0,r3
        0x0000d4d0:    5101        .Q      STR      r1,[r0,r4]
        0x0000d4d2:    e016        ..      B        0xd502 ; NVIC_SetPriority + 122
        0x0000d4d4:    a801        ..      ADD      r0,sp,#4
        0x0000d4d6:    7801        .x      LDRB     r1,[r0,#0]
        0x0000d4d8:    b249        I.      SXTB     r1,r1
        0x0000d4da:    2203        ."      MOVS     r2,#3
        0x0000d4dc:    43d2        .C      MVNS     r2,r2
        0x0000d4de:    4011        .@      ANDS     r1,r1,r2
        0x0000d4e0:    4b09        .K      LDR      r3,[pc,#36] ; [0xd508] = 0xe000e400
        0x0000d4e2:    58c9        .X      LDR      r1,[r1,r3]
        0x0000d4e4:    7800        .x      LDRB     r0,[r0,#0]
        0x0000d4e6:    b240        @.      SXTB     r0,r0
        0x0000d4e8:    0784        ..      LSLS     r4,r0,#30
        0x0000d4ea:    0ee4        ..      LSRS     r4,r4,#27
        0x0000d4ec:    25ff        .%      MOVS     r5,#0xff
        0x0000d4ee:    40a5        .@      LSLS     r5,r5,r4
        0x0000d4f0:    43a9        .C      BICS     r1,r1,r5
        0x0000d4f2:    9d00        ..      LDR      r5,[sp,#0]
        0x0000d4f4:    01ad        ..      LSLS     r5,r5,#6
        0x0000d4f6:    b2ed        ..      UXTB     r5,r5
        0x0000d4f8:    40a5        .@      LSLS     r5,r5,r4
        0x0000d4fa:    4329        )C      ORRS     r1,r1,r5
        0x0000d4fc:    4010        .@      ANDS     r0,r0,r2
        0x0000d4fe:    50c1        .P      STR      r1,[r0,r3]
        0x0000d500:    e7ff        ..      B        0xd502 ; NVIC_SetPriority + 122
        0x0000d502:    b002        ..      ADD      sp,sp,#8
        0x0000d504:    bd70        p.      POP      {r4-r6,pc}
        0x0000d506:    46c0        .F      MOV      r8,r8
    $d.10
    __arm_cp.5_0
        0x0000d508:    e000e400    ....    DCD    3758154752
    __arm_cp.5_1
        0x0000d50c:    e000ed1c    ....    DCD    3758157084
    $t.0
    RTC_IRQHandler
        0x0000d510:    4806        .H      LDR      r0,[pc,#24] ; [0xd52c] = 0x4000802c
        0x0000d512:    6800        .h      LDR      r0,[r0,#0]
        0x0000d514:    2102        .!      MOVS     r1,#2
        0x0000d516:    4008        .@      ANDS     r0,r0,r1
        0x0000d518:    0840        @.      LSRS     r0,r0,#1
        0x0000d51a:    2801        .(      CMP      r0,#1
        0x0000d51c:    d104        ..      BNE      0xd528 ; RTC_IRQHandler + 24
        0x0000d51e:    e7ff        ..      B        0xd520 ; RTC_IRQHandler + 16
        0x0000d520:    4802        .H      LDR      r0,[pc,#8] ; [0xd52c] = 0x4000802c
        0x0000d522:    2102        .!      MOVS     r1,#2
        0x0000d524:    6001        .`      STR      r1,[r0,#0]
        0x0000d526:    e7ff        ..      B        0xd528 ; RTC_IRQHandler + 24
        0x0000d528:    4770        pG      BX       lr
        0x0000d52a:    46c0        .F      MOV      r8,r8
    $d.1
    __arm_cp.0_0
        0x0000d52c:    4000802c    ,..@    DCD    1073774636
    $t.6
    SB_Timer1_Init
        0x0000d530:    b580        ..      PUSH     {r7,lr}
        0x0000d532:    b084        ..      SUB      sp,sp,#0x10
        0x0000d534:    2007        .       MOVS     r0,#7
        0x0000d536:    0301        ..      LSLS     r1,r0,#12
        0x0000d538:    4816        .H      LDR      r0,[pc,#88] ; [0xd594] = 0x5ec00003
        0x0000d53a:    2200        ."      MOVS     r2,#0
        0x0000d53c:    9003        ..      STR      r0,[sp,#0xc]
        0x0000d53e:    9202        ..      STR      r2,[sp,#8]
        0x0000d540:    f7fffe08    ....    BL       CLK_SetModuleClock ; 0xd154
        0x0000d544:    9803        ..      LDR      r0,[sp,#0xc]
        0x0000d546:    f7fffb3f    ..?.    BL       CLK_EnableModuleClock ; 0xcbc8
        0x0000d54a:    4813        .H      LDR      r0,[pc,#76] ; [0xd598] = 0x4000003
        0x0000d54c:    f000f848    ..H.    BL       SYS_ResetModule ; 0xd5e0
        0x0000d550:    48d9        .H      LDR      r0,[pc,#868] ; [0xd8b8] = 0x40010020
        0x0000d552:    6801        .h      LDR      r1,[r0,#0]
        0x0000d554:    2201        ."      MOVS     r2,#1
        0x0000d556:    0693        ..      LSLS     r3,r2,#26
        0x0000d558:    4399        .C      BICS     r1,r1,r3
        0x0000d55a:    6001        .`      STR      r1,[r0,#0]
        0x0000d55c:    06d1        ..      LSLS     r1,r2,#27
        0x0000d55e:    9001        ..      STR      r0,[sp,#4]
        0x0000d560:    f000f942    ..B.    BL       TIMER_Open ; 0xd7e8
        0x0000d564:    9901        ..      LDR      r1,[sp,#4]
        0x0000d566:    680a        .h      LDR      r2,[r1,#0]
        0x0000d568:    2317        .#      MOVS     r3,#0x17
        0x0000d56a:    431a        .C      ORRS     r2,r2,r3
        0x0000d56c:    23e8        .#      MOVS     r3,#0xe8
        0x0000d56e:    439a        .C      BICS     r2,r2,r3
        0x0000d570:    600a        .`      STR      r2,[r1,#0]
        0x0000d572:    227d        }"      MOVS     r2,#0x7d
        0x0000d574:    00d2        ..      LSLS     r2,r2,#3
        0x0000d576:    4b09        .K      LDR      r3,[pc,#36] ; [0xd59c] = 0x40010024
        0x0000d578:    601a        .`      STR      r2,[r3,#0]
        0x0000d57a:    9000        ..      STR      r0,[sp,#0]
        0x0000d57c:    4608        .F      MOV      r0,r1
        0x0000d57e:    f000f8cf    ....    BL       TIMER_EnableInt ; 0xd720
        0x0000d582:    48ce        .H      LDR      r0,[pc,#824] ; [0xd8bc] = 0x20000118
        0x0000d584:    9902        ..      LDR      r1,[sp,#8]
        0x0000d586:    8001        ..      STRH     r1,[r0,#0]
        0x0000d588:    2009        .       MOVS     r0,#9
        0x0000d58a:    f7ffff6d    ..m.    BL       NVIC_EnableIRQ ; 0xd468
        0x0000d58e:    b004        ..      ADD      sp,sp,#0x10
        0x0000d590:    bd80        ..      POP      {r7,pc}
        0x0000d592:    46c0        .F      MOV      r8,r8
    $d.7
    __arm_cp.3_0
        0x0000d594:    5ec00003    ...^    DCD    1589641219
    __arm_cp.3_1
        0x0000d598:    04000003    ....    DCD    67108867
    __arm_cp.3_3
        0x0000d59c:    40010024    $..@    DCD    1073807396
    $t.0
    SYS_Init
        0x0000d5a0:    b580        ..      PUSH     {r7,lr}
        0x0000d5a2:    b084        ..      SUB      sp,sp,#0x10
        0x0000d5a4:    2004        .       MOVS     r0,#4
        0x0000d5a6:    f7fffc37    ..7.    BL       CLK_EnableXtalRC ; 0xce18
        0x0000d5aa:    2010        .       MOVS     r0,#0x10
        0x0000d5ac:    f7fffe74    ..t.    BL       CLK_WaitClockReady ; 0xd298
        0x0000d5b0:    2107        .!      MOVS     r1,#7
        0x0000d5b2:    2200        ."      MOVS     r2,#0
        0x0000d5b4:    9003        ..      STR      r0,[sp,#0xc]
        0x0000d5b6:    4608        .F      MOV      r0,r1
        0x0000d5b8:    4611        .F      MOV      r1,r2
        0x0000d5ba:    f7fffd93    ....    BL       CLK_SetHCLK ; 0xd0e4
        0x0000d5be:    2009        .       MOVS     r0,#9
        0x0000d5c0:    9002        ..      STR      r0,[sp,#8]
        0x0000d5c2:    f7fffc29    ..).    BL       CLK_EnableXtalRC ; 0xce18
        0x0000d5c6:    9802        ..      LDR      r0,[sp,#8]
        0x0000d5c8:    f7fffe66    ..f.    BL       CLK_WaitClockReady ; 0xd298
        0x0000d5cc:    4903        .I      LDR      r1,[pc,#12] ; [0xd5dc] = 0x2faf080
        0x0000d5ce:    9001        ..      STR      r0,[sp,#4]
        0x0000d5d0:    4608        .F      MOV      r0,r1
        0x0000d5d2:    f7fffd23    ..#.    BL       CLK_SetCoreClock ; 0xd01c
        0x0000d5d6:    b004        ..      ADD      sp,sp,#0x10
        0x0000d5d8:    bd80        ..      POP      {r7,pc}
        0x0000d5da:    46c0        .F      MOV      r8,r8
    $d.1
    __arm_cp.0_0
        0x0000d5dc:    02faf080    ....    DCD    50000000
    $t.13
    SYS_ResetModule
        0x0000d5e0:    b5b0        ..      PUSH     {r4,r5,r7,lr}
        0x0000d5e2:    b081        ..      SUB      sp,sp,#4
        0x0000d5e4:    9000        ..      STR      r0,[sp,#0]
        0x0000d5e6:    9800        ..      LDR      r0,[sp,#0]
        0x0000d5e8:    490a        .I      LDR      r1,[pc,#40] ; [0xd614] = 0xffffff
        0x0000d5ea:    4602        .F      MOV      r2,r0
        0x0000d5ec:    400a        .@      ANDS     r2,r2,r1
        0x0000d5ee:    2301        .#      MOVS     r3,#1
        0x0000d5f0:    461c        .F      MOV      r4,r3
        0x0000d5f2:    4094        .@      LSLS     r4,r4,r2
        0x0000d5f4:    0e00        ..      LSRS     r0,r0,#24
        0x0000d5f6:    4a08        .J      LDR      r2,[pc,#32] ; [0xd618] = 0x50000008
        0x0000d5f8:    5885        .X      LDR      r5,[r0,r2]
        0x0000d5fa:    4325        %C      ORRS     r5,r5,r4
        0x0000d5fc:    5085        .P      STR      r5,[r0,r2]
        0x0000d5fe:    9800        ..      LDR      r0,[sp,#0]
        0x0000d600:    4604        .F      MOV      r4,r0
        0x0000d602:    400c        .@      ANDS     r4,r4,r1
        0x0000d604:    40a3        .@      LSLS     r3,r3,r4
        0x0000d606:    0e00        ..      LSRS     r0,r0,#24
        0x0000d608:    5881        .X      LDR      r1,[r0,r2]
        0x0000d60a:    4399        .C      BICS     r1,r1,r3
        0x0000d60c:    5081        .P      STR      r1,[r0,r2]
        0x0000d60e:    b001        ..      ADD      sp,sp,#4
        0x0000d610:    bdb0        ..      POP      {r4,r5,r7,pc}
        0x0000d612:    46c0        .F      MOV      r8,r8
    $d.14
    __arm_cp.7_0
        0x0000d614:    00ffffff    ....    DCD    16777215
    __arm_cp.7_1
        0x0000d618:    50000008    ...P    DCD    1342177288
    $t.39
    SYS_UnlockReg
        0x0000d61c:    e7ff        ..      B        0xd61e ; SYS_UnlockReg + 2
        0x0000d61e:    4807        .H      LDR      r0,[pc,#28] ; [0xd63c] = 0x50000100
        0x0000d620:    6800        .h      LDR      r0,[r0,#0]
        0x0000d622:    2801        .(      CMP      r0,#1
        0x0000d624:    d008        ..      BEQ      0xd638 ; SYS_UnlockReg + 28
        0x0000d626:    e7ff        ..      B        0xd628 ; SYS_UnlockReg + 12
        0x0000d628:    4804        .H      LDR      r0,[pc,#16] ; [0xd63c] = 0x50000100
        0x0000d62a:    2159        Y!      MOVS     r1,#0x59
        0x0000d62c:    6001        .`      STR      r1,[r0,#0]
        0x0000d62e:    2116        .!      MOVS     r1,#0x16
        0x0000d630:    6001        .`      STR      r1,[r0,#0]
        0x0000d632:    2188        .!      MOVS     r1,#0x88
        0x0000d634:    6001        .`      STR      r1,[r0,#0]
        0x0000d636:    e7f2        ..      B        0xd61e ; SYS_UnlockReg + 2
        0x0000d638:    4770        pG      BX       lr
        0x0000d63a:    46c0        .F      MOV      r8,r8
    $d.40
    __arm_cp.24_0
        0x0000d63c:    50000100    ...P    DCD    1342177536
    $t.8
    SendChar
        0x0000d640:    b580        ..      PUSH     {r7,lr}
        0x0000d642:    b082        ..      SUB      sp,sp,#8
        0x0000d644:    9001        ..      STR      r0,[sp,#4]
        0x0000d646:    9801        ..      LDR      r0,[sp,#4]
        0x0000d648:    f000f802    ....    BL       SendChar_ToUART ; 0xd650
        0x0000d64c:    b002        ..      ADD      sp,sp,#8
        0x0000d64e:    bd80        ..      POP      {r7,pc}
    SendChar_ToUART
        0x0000d650:    b081        ..      SUB      sp,sp,#4
        0x0000d652:    9000        ..      STR      r0,[sp,#0]
        0x0000d654:    e7ff        ..      B        0xd656 ; SendChar_ToUART + 6
        0x0000d656:    480e        .H      LDR      r0,[pc,#56] ; [0xd690] = 0x40150018
        0x0000d658:    6800        .h      LDR      r0,[r0,#0]
        0x0000d65a:    0200        ..      LSLS     r0,r0,#8
        0x0000d65c:    2800        .(      CMP      r0,#0
        0x0000d65e:    d501        ..      BPL      0xd664 ; SendChar_ToUART + 20
        0x0000d660:    e7ff        ..      B        0xd662 ; SendChar_ToUART + 18
        0x0000d662:    e7f8        ..      B        0xd656 ; SendChar_ToUART + 6
        0x0000d664:    9800        ..      LDR      r0,[sp,#0]
        0x0000d666:    280a        .(      CMP      r0,#0xa
        0x0000d668:    d10c        ..      BNE      0xd684 ; SendChar_ToUART + 52
        0x0000d66a:    e7ff        ..      B        0xd66c ; SendChar_ToUART + 28
        0x0000d66c:    4809        .H      LDR      r0,[pc,#36] ; [0xd694] = 0x40150000
        0x0000d66e:    210d        .!      MOVS     r1,#0xd
        0x0000d670:    6001        .`      STR      r1,[r0,#0]
        0x0000d672:    e7ff        ..      B        0xd674 ; SendChar_ToUART + 36
        0x0000d674:    4806        .H      LDR      r0,[pc,#24] ; [0xd690] = 0x40150018
        0x0000d676:    6800        .h      LDR      r0,[r0,#0]
        0x0000d678:    0200        ..      LSLS     r0,r0,#8
        0x0000d67a:    2800        .(      CMP      r0,#0
        0x0000d67c:    d501        ..      BPL      0xd682 ; SendChar_ToUART + 50
        0x0000d67e:    e7ff        ..      B        0xd680 ; SendChar_ToUART + 48
        0x0000d680:    e7f8        ..      B        0xd674 ; SendChar_ToUART + 36
        0x0000d682:    e7ff        ..      B        0xd684 ; SendChar_ToUART + 52
        0x0000d684:    9800        ..      LDR      r0,[sp,#0]
        0x0000d686:    4903        .I      LDR      r1,[pc,#12] ; [0xd694] = 0x40150000
        0x0000d688:    6008        .`      STR      r0,[r1,#0]
        0x0000d68a:    b001        ..      ADD      sp,sp,#4
        0x0000d68c:    4770        pG      BX       lr
        0x0000d68e:    46c0        .F      MOV      r8,r8
    $d.7
    __arm_cp.3_0
        0x0000d690:    40150018    ...@    DCD    1075118104
    __arm_cp.3_1
        0x0000d694:    40150000    ...@    DCD    1075118080
    $t.0
    SystemCoreClockUpdate
        0x0000d698:    b580        ..      PUSH     {r7,lr}
        0x0000d69a:    b084        ..      SUB      sp,sp,#0x10
        0x0000d69c:    f7fffbc8    ....    BL       CLK_GetPLLClockFreq ; 0xce30
        0x0000d6a0:    4915        .I      LDR      r1,[pc,#84] ; [0xd6f8] = 0x20000004
        0x0000d6a2:    6008        .`      STR      r0,[r1,#0]
        0x0000d6a4:    4815        .H      LDR      r0,[pc,#84] ; [0xd6fc] = 0x50000210
        0x0000d6a6:    6800        .h      LDR      r0,[r0,#0]
        0x0000d6a8:    2107        .!      MOVS     r1,#7
        0x0000d6aa:    4008        .@      ANDS     r0,r0,r1
        0x0000d6ac:    9002        ..      STR      r0,[sp,#8]
        0x0000d6ae:    9802        ..      LDR      r0,[sp,#8]
        0x0000d6b0:    2802        .(      CMP      r0,#2
        0x0000d6b2:    d006        ..      BEQ      0xd6c2 ; SystemCoreClockUpdate + 42
        0x0000d6b4:    e7ff        ..      B        0xd6b6 ; SystemCoreClockUpdate + 30
        0x0000d6b6:    9802        ..      LDR      r0,[sp,#8]
        0x0000d6b8:    0080        ..      LSLS     r0,r0,#2
        0x0000d6ba:    4911        .I      LDR      r1,[pc,#68] ; [0xd700] = 0x2000000c
        0x0000d6bc:    5808        .X      LDR      r0,[r1,r0]
        0x0000d6be:    9003        ..      STR      r0,[sp,#0xc]
        0x0000d6c0:    e003        ..      B        0xd6ca ; SystemCoreClockUpdate + 50
        0x0000d6c2:    480d        .H      LDR      r0,[pc,#52] ; [0xd6f8] = 0x20000004
        0x0000d6c4:    6800        .h      LDR      r0,[r0,#0]
        0x0000d6c6:    9003        ..      STR      r0,[sp,#0xc]
        0x0000d6c8:    e7ff        ..      B        0xd6ca ; SystemCoreClockUpdate + 50
        0x0000d6ca:    48b5        .H      LDR      r0,[pc,#724] ; [0xd9a0] = 0x50000218
        0x0000d6cc:    6800        .h      LDR      r0,[r0,#0]
        0x0000d6ce:    210f        .!      MOVS     r1,#0xf
        0x0000d6d0:    4008        .@      ANDS     r0,r0,r1
        0x0000d6d2:    1c40        @.      ADDS     r0,r0,#1
        0x0000d6d4:    9001        ..      STR      r0,[sp,#4]
        0x0000d6d6:    9803        ..      LDR      r0,[sp,#0xc]
        0x0000d6d8:    9901        ..      LDR      r1,[sp,#4]
        0x0000d6da:    f7fefd21    ..!.    BL       __aeabi_uidiv ; 0xc120
        0x0000d6de:    4941        AI      LDR      r1,[pc,#260] ; [0xd7e4] = 0x20000008
        0x0000d6e0:    6008        .`      STR      r0,[r1,#0]
        0x0000d6e2:    6808        .h      LDR      r0,[r1,#0]
        0x0000d6e4:    4907        .I      LDR      r1,[pc,#28] ; [0xd704] = 0x7a120
        0x0000d6e6:    1840        @.      ADDS     r0,r0,r1
        0x0000d6e8:    4907        .I      LDR      r1,[pc,#28] ; [0xd708] = 0xf4240
        0x0000d6ea:    f7fefd19    ....    BL       __aeabi_uidiv ; 0xc120
        0x0000d6ee:    4907        .I      LDR      r1,[pc,#28] ; [0xd70c] = 0x20000000
        0x0000d6f0:    6008        .`      STR      r0,[r1,#0]
        0x0000d6f2:    b004        ..      ADD      sp,sp,#0x10
        0x0000d6f4:    bd80        ..      POP      {r7,pc}
        0x0000d6f6:    46c0        .F      MOV      r8,r8
    $d.1
    __arm_cp.0_0
        0x0000d6f8:    20000004    ...     DCD    536870916
    __arm_cp.0_1
        0x0000d6fc:    50000210    ...P    DCD    1342177808
    __arm_cp.0_2
        0x0000d700:    2000000c    ...     DCD    536870924
    __arm_cp.0_5
        0x0000d704:    0007a120     ...    DCD    500000
    __arm_cp.0_6
        0x0000d708:    000f4240    @B..    DCD    1000000
    __arm_cp.0_7
        0x0000d70c:    20000000    ...     DCD    536870912
    $t.4
    SystemInit
        0x0000d710:    4770        pG      BX       lr
    TIMER_ClearIntFlag
        0x0000d712:    b081        ..      SUB      sp,sp,#4
        0x0000d714:    9000        ..      STR      r0,[sp,#0]
        0x0000d716:    9800        ..      LDR      r0,[sp,#0]
        0x0000d718:    2101        .!      MOVS     r1,#1
        0x0000d71a:    6081        .`      STR      r1,[r0,#8]
        0x0000d71c:    b001        ..      ADD      sp,sp,#4
        0x0000d71e:    4770        pG      BX       lr
    TIMER_EnableInt
        0x0000d720:    b081        ..      SUB      sp,sp,#4
        0x0000d722:    9000        ..      STR      r0,[sp,#0]
        0x0000d724:    9800        ..      LDR      r0,[sp,#0]
        0x0000d726:    6801        .h      LDR      r1,[r0,#0]
        0x0000d728:    2201        ."      MOVS     r2,#1
        0x0000d72a:    0752        R.      LSLS     r2,r2,#29
        0x0000d72c:    4311        .C      ORRS     r1,r1,r2
        0x0000d72e:    6001        .`      STR      r1,[r0,#0]
        0x0000d730:    b001        ..      ADD      sp,sp,#4
        0x0000d732:    4770        pG      BX       lr
    TIMER_GetIntFlag
        0x0000d734:    b081        ..      SUB      sp,sp,#4
        0x0000d736:    9000        ..      STR      r0,[sp,#0]
        0x0000d738:    9800        ..      LDR      r0,[sp,#0]
        0x0000d73a:    6880        .h      LDR      r0,[r0,#8]
        0x0000d73c:    2101        .!      MOVS     r1,#1
        0x0000d73e:    4008        .@      ANDS     r0,r0,r1
        0x0000d740:    b001        ..      ADD      sp,sp,#4
        0x0000d742:    4770        pG      BX       lr
    TIMER_GetModuleClock
        0x0000d744:    b5b0        ..      PUSH     {r4,r5,r7,lr}
        0x0000d746:    b08b        ..      SUB      sp,sp,#0x2c
        0x0000d748:    9009        ..      STR      r0,[sp,#0x24]
        0x0000d74a:    4824        $H      LDR      r0,[pc,#144] ; [0xd7dc] = 0xe6c8
        0x0000d74c:    4669        iF      MOV      r1,sp
        0x0000d74e:    c83c        <.      LDM      r0!,{r2-r5}
        0x0000d750:    c13c        <.      STM      r1!,{r2-r5}
        0x0000d752:    c83c        <.      LDM      r0!,{r2-r5}
        0x0000d754:    c13c        <.      STM      r1!,{r2-r5}
        0x0000d756:    9809        ..      LDR      r0,[sp,#0x24]
        0x0000d758:    49c3        .I      LDR      r1,[pc,#780] ; [0xda68] = 0x40010000
        0x0000d75a:    4288        .B      CMP      r0,r1
        0x0000d75c:    d108        ..      BNE      0xd770 ; TIMER_GetModuleClock + 44
        0x0000d75e:    e7ff        ..      B        0xd760 ; TIMER_GetModuleClock + 28
        0x0000d760:    488e        .H      LDR      r0,[pc,#568] ; [0xd99c] = 0x50000214
        0x0000d762:    6800        .h      LDR      r0,[r0,#0]
        0x0000d764:    2107        .!      MOVS     r1,#7
        0x0000d766:    0209        ..      LSLS     r1,r1,#8
        0x0000d768:    4008        .@      ANDS     r0,r0,r1
        0x0000d76a:    0a00        ..      LSRS     r0,r0,#8
        0x0000d76c:    9008        ..      STR      r0,[sp,#0x20]
        0x0000d76e:    e023        #.      B        0xd7b8 ; TIMER_GetModuleClock + 116
        0x0000d770:    9809        ..      LDR      r0,[sp,#0x24]
        0x0000d772:    49bf        .I      LDR      r1,[pc,#764] ; [0xda70] = 0x40010020
        0x0000d774:    4288        .B      CMP      r0,r1
        0x0000d776:    d108        ..      BNE      0xd78a ; TIMER_GetModuleClock + 70
        0x0000d778:    e7ff        ..      B        0xd77a ; TIMER_GetModuleClock + 54
        0x0000d77a:    4888        .H      LDR      r0,[pc,#544] ; [0xd99c] = 0x50000214
        0x0000d77c:    6800        .h      LDR      r0,[r0,#0]
        0x0000d77e:    2107        .!      MOVS     r1,#7
        0x0000d780:    0309        ..      LSLS     r1,r1,#12
        0x0000d782:    4008        .@      ANDS     r0,r0,r1
        0x0000d784:    0b00        ..      LSRS     r0,r0,#12
        0x0000d786:    9008        ..      STR      r0,[sp,#0x20]
        0x0000d788:    e015        ..      B        0xd7b6 ; TIMER_GetModuleClock + 114
        0x0000d78a:    9809        ..      LDR      r0,[sp,#0x24]
        0x0000d78c:    4914        .I      LDR      r1,[pc,#80] ; [0xd7e0] = 0x40110000
        0x0000d78e:    4288        .B      CMP      r0,r1
        0x0000d790:    d108        ..      BNE      0xd7a4 ; TIMER_GetModuleClock + 96
        0x0000d792:    e7ff        ..      B        0xd794 ; TIMER_GetModuleClock + 80
        0x0000d794:    4881        .H      LDR      r0,[pc,#516] ; [0xd99c] = 0x50000214
        0x0000d796:    6800        .h      LDR      r0,[r0,#0]
        0x0000d798:    2107        .!      MOVS     r1,#7
        0x0000d79a:    0409        ..      LSLS     r1,r1,#16
        0x0000d79c:    4008        .@      ANDS     r0,r0,r1
        0x0000d79e:    0c00        ..      LSRS     r0,r0,#16
        0x0000d7a0:    9008        ..      STR      r0,[sp,#0x20]
        0x0000d7a2:    e007        ..      B        0xd7b4 ; TIMER_GetModuleClock + 112
        0x0000d7a4:    487d        }H      LDR      r0,[pc,#500] ; [0xd99c] = 0x50000214
        0x0000d7a6:    6800        .h      LDR      r0,[r0,#0]
        0x0000d7a8:    2107        .!      MOVS     r1,#7
        0x0000d7aa:    0509        ..      LSLS     r1,r1,#20
        0x0000d7ac:    4008        .@      ANDS     r0,r0,r1
        0x0000d7ae:    0d00        ..      LSRS     r0,r0,#20
        0x0000d7b0:    9008        ..      STR      r0,[sp,#0x20]
        0x0000d7b2:    e7ff        ..      B        0xd7b4 ; TIMER_GetModuleClock + 112
        0x0000d7b4:    e7ff        ..      B        0xd7b6 ; TIMER_GetModuleClock + 114
        0x0000d7b6:    e7ff        ..      B        0xd7b8 ; TIMER_GetModuleClock + 116
        0x0000d7b8:    9808        ..      LDR      r0,[sp,#0x20]
        0x0000d7ba:    2802        .(      CMP      r0,#2
        0x0000d7bc:    d104        ..      BNE      0xd7c8 ; TIMER_GetModuleClock + 132
        0x0000d7be:    e7ff        ..      B        0xd7c0 ; TIMER_GetModuleClock + 124
        0x0000d7c0:    4808        .H      LDR      r0,[pc,#32] ; [0xd7e4] = 0x20000008
        0x0000d7c2:    6800        .h      LDR      r0,[r0,#0]
        0x0000d7c4:    900a        ..      STR      r0,[sp,#0x28]
        0x0000d7c6:    e005        ..      B        0xd7d4 ; TIMER_GetModuleClock + 144
        0x0000d7c8:    9808        ..      LDR      r0,[sp,#0x20]
        0x0000d7ca:    0080        ..      LSLS     r0,r0,#2
        0x0000d7cc:    4669        iF      MOV      r1,sp
        0x0000d7ce:    5808        .X      LDR      r0,[r1,r0]
        0x0000d7d0:    900a        ..      STR      r0,[sp,#0x28]
        0x0000d7d2:    e7ff        ..      B        0xd7d4 ; TIMER_GetModuleClock + 144
        0x0000d7d4:    980a        ..      LDR      r0,[sp,#0x28]
        0x0000d7d6:    b00b        ..      ADD      sp,sp,#0x2c
        0x0000d7d8:    bdb0        ..      POP      {r4,r5,r7,pc}
        0x0000d7da:    46c0        .F      MOV      r8,r8
    $d.2
    __arm_cp.1_0
        0x0000d7dc:    0000e6c8    ....    DCD    59080
    __arm_cp.1_3
        0x0000d7e0:    40110000    ...@    DCD    1074855936
    __arm_cp.1_5
        0x0000d7e4:    20000008    ...     DCD    536870920
    $t.0
    TIMER_Open
        0x0000d7e8:    b580        ..      PUSH     {r7,lr}
        0x0000d7ea:    b086        ..      SUB      sp,sp,#0x18
        0x0000d7ec:    9005        ..      STR      r0,[sp,#0x14]
        0x0000d7ee:    9104        ..      STR      r1,[sp,#0x10]
        0x0000d7f0:    9203        ..      STR      r2,[sp,#0xc]
        0x0000d7f2:    9805        ..      LDR      r0,[sp,#0x14]
        0x0000d7f4:    f7ffffa6    ....    BL       TIMER_GetModuleClock ; 0xd744
        0x0000d7f8:    9002        ..      STR      r0,[sp,#8]
        0x0000d7fa:    2000        .       MOVS     r0,#0
        0x0000d7fc:    9001        ..      STR      r0,[sp,#4]
        0x0000d7fe:    9000        ..      STR      r0,[sp,#0]
        0x0000d800:    9803        ..      LDR      r0,[sp,#0xc]
        0x0000d802:    9902        ..      LDR      r1,[sp,#8]
        0x0000d804:    0849        I.      LSRS     r1,r1,#1
        0x0000d806:    4288        .B      CMP      r0,r1
        0x0000d808:    d903        ..      BLS      0xd812 ; TIMER_Open + 42
        0x0000d80a:    e7ff        ..      B        0xd80c ; TIMER_Open + 36
        0x0000d80c:    2002        .       MOVS     r0,#2
        0x0000d80e:    9001        ..      STR      r0,[sp,#4]
        0x0000d810:    e013        ..      B        0xd83a ; TIMER_Open + 82
        0x0000d812:    9802        ..      LDR      r0,[sp,#8]
        0x0000d814:    9903        ..      LDR      r1,[sp,#0xc]
        0x0000d816:    f7fefc83    ....    BL       __aeabi_uidiv ; 0xc120
        0x0000d81a:    9001        ..      STR      r0,[sp,#4]
        0x0000d81c:    a801        ..      ADD      r0,sp,#4
        0x0000d81e:    78c0        .x      LDRB     r0,[r0,#3]
        0x0000d820:    9000        ..      STR      r0,[sp,#0]
        0x0000d822:    9800        ..      LDR      r0,[sp,#0]
        0x0000d824:    2800        .(      CMP      r0,#0
        0x0000d826:    d007        ..      BEQ      0xd838 ; TIMER_Open + 80
        0x0000d828:    e7ff        ..      B        0xd82a ; TIMER_Open + 66
        0x0000d82a:    9801        ..      LDR      r0,[sp,#4]
        0x0000d82c:    9900        ..      LDR      r1,[sp,#0]
        0x0000d82e:    1c49        I.      ADDS     r1,r1,#1
        0x0000d830:    f7fefc76    ..v.    BL       __aeabi_uidiv ; 0xc120
        0x0000d834:    9001        ..      STR      r0,[sp,#4]
        0x0000d836:    e7ff        ..      B        0xd838 ; TIMER_Open + 80
        0x0000d838:    e7ff        ..      B        0xd83a ; TIMER_Open + 82
        0x0000d83a:    9804        ..      LDR      r0,[sp,#0x10]
        0x0000d83c:    9900        ..      LDR      r1,[sp,#0]
        0x0000d83e:    4308        .C      ORRS     r0,r0,r1
        0x0000d840:    9905        ..      LDR      r1,[sp,#0x14]
        0x0000d842:    6008        .`      STR      r0,[r1,#0]
        0x0000d844:    9801        ..      LDR      r0,[sp,#4]
        0x0000d846:    9905        ..      LDR      r1,[sp,#0x14]
        0x0000d848:    6048        H`      STR      r0,[r1,#4]
        0x0000d84a:    9802        ..      LDR      r0,[sp,#8]
        0x0000d84c:    9901        ..      LDR      r1,[sp,#4]
        0x0000d84e:    9a00        ..      LDR      r2,[sp,#0]
        0x0000d850:    1c52        R.      ADDS     r2,r2,#1
        0x0000d852:    434a        JC      MULS     r2,r1,r2
        0x0000d854:    4611        .F      MOV      r1,r2
        0x0000d856:    f7fefc63    ..c.    BL       __aeabi_uidiv ; 0xc120
        0x0000d85a:    b006        ..      ADD      sp,sp,#0x18
        0x0000d85c:    bd80        ..      POP      {r7,pc}
    TIMER_Start
        0x0000d85e:    b081        ..      SUB      sp,sp,#4
        0x0000d860:    9000        ..      STR      r0,[sp,#0]
        0x0000d862:    9800        ..      LDR      r0,[sp,#0]
        0x0000d864:    6801        .h      LDR      r1,[r0,#0]
        0x0000d866:    2201        ."      MOVS     r2,#1
        0x0000d868:    0792        ..      LSLS     r2,r2,#30
        0x0000d86a:    4311        .C      ORRS     r1,r1,r2
        0x0000d86c:    6001        .`      STR      r1,[r0,#0]
        0x0000d86e:    b001        ..      ADD      sp,sp,#4
        0x0000d870:    4770        pG      BX       lr
        0x0000d872:    0000        ..      MOVS     r0,r0
    TMR0_IRQHandler
        0x0000d874:    b580        ..      PUSH     {r7,lr}
        0x0000d876:    487c        |H      LDR      r0,[pc,#496] ; [0xda68] = 0x40010000
        0x0000d878:    f7ffff5c    ..\.    BL       TIMER_GetIntFlag ; 0xd734
        0x0000d87c:    2801        .(      CMP      r0,#1
        0x0000d87e:    d108        ..      BNE      0xd892 ; TMR0_IRQHandler + 30
        0x0000d880:    e7ff        ..      B        0xd882 ; TMR0_IRQHandler + 14
        0x0000d882:    4879        yH      LDR      r0,[pc,#484] ; [0xda68] = 0x40010000
        0x0000d884:    f7ffff45    ..E.    BL       TIMER_ClearIntFlag ; 0xd712
        0x0000d888:    4802        .H      LDR      r0,[pc,#8] ; [0xd894] = 0x20000114
        0x0000d88a:    6801        .h      LDR      r1,[r0,#0]
        0x0000d88c:    1c49        I.      ADDS     r1,r1,#1
        0x0000d88e:    6001        .`      STR      r1,[r0,#0]
        0x0000d890:    e7ff        ..      B        0xd892 ; TMR0_IRQHandler + 30
        0x0000d892:    bd80        ..      POP      {r7,pc}
    $d.15
    __arm_cp.8_1
        0x0000d894:    20000114    ...     DCD    536871188
    $t.21
    TMR1_IRQHandler
        0x0000d898:    b580        ..      PUSH     {r7,lr}
        0x0000d89a:    4875        uH      LDR      r0,[pc,#468] ; [0xda70] = 0x40010020
        0x0000d89c:    f7ffff4a    ..J.    BL       TIMER_GetIntFlag ; 0xd734
        0x0000d8a0:    2801        .(      CMP      r0,#1
        0x0000d8a2:    d108        ..      BNE      0xd8b6 ; TMR1_IRQHandler + 30
        0x0000d8a4:    e7ff        ..      B        0xd8a6 ; TMR1_IRQHandler + 14
        0x0000d8a6:    4805        .H      LDR      r0,[pc,#20] ; [0xd8bc] = 0x20000118
        0x0000d8a8:    8801        ..      LDRH     r1,[r0,#0]
        0x0000d8aa:    1c49        I.      ADDS     r1,r1,#1
        0x0000d8ac:    8001        ..      STRH     r1,[r0,#0]
        0x0000d8ae:    4870        pH      LDR      r0,[pc,#448] ; [0xda70] = 0x40010020
        0x0000d8b0:    f7ffff2f    ../.    BL       TIMER_ClearIntFlag ; 0xd712
        0x0000d8b4:    e7ff        ..      B        0xd8b6 ; TMR1_IRQHandler + 30
        0x0000d8b6:    bd80        ..      POP      {r7,pc}
    $d.22
    __arm_cp.13_0
        0x0000d8b8:    40010020     ..@    DCD    1073807392
    __arm_cp.13_1
        0x0000d8bc:    20000118    ...     DCD    536871192
    $t.13
    UART_Open
        0x0000d8c0:    b510        ..      PUSH     {r4,lr}
        0x0000d8c2:    b08a        ..      SUB      sp,sp,#0x28
        0x0000d8c4:    9009        ..      STR      r0,[sp,#0x24]
        0x0000d8c6:    9108        ..      STR      r1,[sp,#0x20]
        0x0000d8c8:    4833        3H      LDR      r0,[pc,#204] ; [0xd998] = 0xe698
        0x0000d8ca:    68c1        .h      LDR      r1,[r0,#0xc]
        0x0000d8cc:    9105        ..      STR      r1,[sp,#0x14]
        0x0000d8ce:    6881        .h      LDR      r1,[r0,#8]
        0x0000d8d0:    9104        ..      STR      r1,[sp,#0x10]
        0x0000d8d2:    6841        Ah      LDR      r1,[r0,#4]
        0x0000d8d4:    9103        ..      STR      r1,[sp,#0xc]
        0x0000d8d6:    6800        .h      LDR      r0,[r0,#0]
        0x0000d8d8:    9002        ..      STR      r0,[sp,#8]
        0x0000d8da:    2000        .       MOVS     r0,#0
        0x0000d8dc:    9001        ..      STR      r0,[sp,#4]
        0x0000d8de:    49b1        .I      LDR      r1,[pc,#708] ; [0xdba4] = 0x50000214
        0x0000d8e0:    6809        .h      LDR      r1,[r1,#0]
        0x0000d8e2:    2203        ."      MOVS     r2,#3
        0x0000d8e4:    0613        ..      LSLS     r3,r2,#24
        0x0000d8e6:    4019        .@      ANDS     r1,r1,r3
        0x0000d8e8:    0e09        ..      LSRS     r1,r1,#24
        0x0000d8ea:    ab07        ..      ADD      r3,sp,#0x1c
        0x0000d8ec:    7019        .p      STRB     r1,[r3,#0]
        0x0000d8ee:    492c        ,I      LDR      r1,[pc,#176] ; [0xd9a0] = 0x50000218
        0x0000d8f0:    6809        .h      LDR      r1,[r1,#0]
        0x0000d8f2:    240f        .$      MOVS     r4,#0xf
        0x0000d8f4:    0224        $.      LSLS     r4,r4,#8
        0x0000d8f6:    4021        !@      ANDS     r1,r1,r4
        0x0000d8f8:    0a09        ..      LSRS     r1,r1,#8
        0x0000d8fa:    ac06        ..      ADD      r4,sp,#0x18
        0x0000d8fc:    7021        !p      STRB     r1,[r4,#0]
        0x0000d8fe:    9909        ..      LDR      r1,[sp,#0x24]
        0x0000d900:    6308        .c      STR      r0,[r1,#0x30]
        0x0000d902:    9809        ..      LDR      r0,[sp,#0x24]
        0x0000d904:    60c2        .`      STR      r2,[r0,#0xc]
        0x0000d906:    9809        ..      LDR      r0,[sp,#0x24]
        0x0000d908:    6881        .h      LDR      r1,[r0,#8]
        0x0000d90a:    4a26        &J      LDR      r2,[pc,#152] ; [0xd9a4] = 0xfff0ff0f
        0x0000d90c:    4011        .@      ANDS     r1,r1,r2
        0x0000d90e:    6081        .`      STR      r1,[r0,#8]
        0x0000d910:    7818        .x      LDRB     r0,[r3,#0]
        0x0000d912:    2801        .(      CMP      r0,#1
        0x0000d914:    d108        ..      BNE      0xd928 ; UART_Open + 104
        0x0000d916:    e7ff        ..      B        0xd918 ; UART_Open + 88
        0x0000d918:    f7fffb2a    ..*.    BL       CLK_GetPLLClockFreq ; 0xcf70
        0x0000d91c:    a907        ..      ADD      r1,sp,#0x1c
        0x0000d91e:    7809        .x      LDRB     r1,[r1,#0]
        0x0000d920:    0089        ..      LSLS     r1,r1,#2
        0x0000d922:    aa02        ..      ADD      r2,sp,#8
        0x0000d924:    5050        PP      STR      r0,[r2,r1]
        0x0000d926:    e7ff        ..      B        0xd928 ; UART_Open + 104
        0x0000d928:    9808        ..      LDR      r0,[sp,#0x20]
        0x0000d92a:    2800        .(      CMP      r0,#0
        0x0000d92c:    d032        2.      BEQ      0xd994 ; UART_Open + 212
        0x0000d92e:    e7ff        ..      B        0xd930 ; UART_Open + 112
        0x0000d930:    a807        ..      ADD      r0,sp,#0x1c
        0x0000d932:    7800        .x      LDRB     r0,[r0,#0]
        0x0000d934:    0080        ..      LSLS     r0,r0,#2
        0x0000d936:    a902        ..      ADD      r1,sp,#8
        0x0000d938:    5808        .X      LDR      r0,[r1,r0]
        0x0000d93a:    a906        ..      ADD      r1,sp,#0x18
        0x0000d93c:    7809        .x      LDRB     r1,[r1,#0]
        0x0000d93e:    1c49        I.      ADDS     r1,r1,#1
        0x0000d940:    f7fefbee    ....    BL       __aeabi_uidiv ; 0xc120
        0x0000d944:    9908        ..      LDR      r1,[sp,#0x20]
        0x0000d946:    084a        J.      LSRS     r2,r1,#1
        0x0000d948:    1880        ..      ADDS     r0,r0,r2
        0x0000d94a:    f7fefbe9    ....    BL       __aeabi_uidiv ; 0xc120
        0x0000d94e:    1e80        ..      SUBS     r0,r0,#2
        0x0000d950:    9001        ..      STR      r0,[sp,#4]
        0x0000d952:    a801        ..      ADD      r0,sp,#4
        0x0000d954:    8840        @.      LDRH     r0,[r0,#2]
        0x0000d956:    2800        .(      CMP      r0,#0
        0x0000d958:    d014        ..      BEQ      0xd984 ; UART_Open + 196
        0x0000d95a:    e7ff        ..      B        0xd95c ; UART_Open + 156
        0x0000d95c:    a807        ..      ADD      r0,sp,#0x1c
        0x0000d95e:    7800        .x      LDRB     r0,[r0,#0]
        0x0000d960:    0080        ..      LSLS     r0,r0,#2
        0x0000d962:    a902        ..      ADD      r1,sp,#8
        0x0000d964:    5808        .X      LDR      r0,[r1,r0]
        0x0000d966:    a906        ..      ADD      r1,sp,#0x18
        0x0000d968:    7809        .x      LDRB     r1,[r1,#0]
        0x0000d96a:    1c49        I.      ADDS     r1,r1,#1
        0x0000d96c:    f7fefbd8    ....    BL       __aeabi_uidiv ; 0xc120
        0x0000d970:    9908        ..      LDR      r1,[sp,#0x20]
        0x0000d972:    00ca        ..      LSLS     r2,r1,#3
        0x0000d974:    1880        ..      ADDS     r0,r0,r2
        0x0000d976:    f7fefbd3    ....    BL       __aeabi_uidiv ; 0xc120
        0x0000d97a:    0900        ..      LSRS     r0,r0,#4
        0x0000d97c:    1e80        ..      SUBS     r0,r0,#2
        0x0000d97e:    9909        ..      LDR      r1,[sp,#0x24]
        0x0000d980:    6248        Hb      STR      r0,[r1,#0x24]
        0x0000d982:    e006        ..      B        0xd992 ; UART_Open + 210
        0x0000d984:    9801        ..      LDR      r0,[sp,#4]
        0x0000d986:    2103        .!      MOVS     r1,#3
        0x0000d988:    0709        ..      LSLS     r1,r1,#28
        0x0000d98a:    4308        .C      ORRS     r0,r0,r1
        0x0000d98c:    9909        ..      LDR      r1,[sp,#0x24]
        0x0000d98e:    6248        Hb      STR      r0,[r1,#0x24]
        0x0000d990:    e7ff        ..      B        0xd992 ; UART_Open + 210
        0x0000d992:    e7ff        ..      B        0xd994 ; UART_Open + 212
        0x0000d994:    b00a        ..      ADD      sp,sp,#0x28
        0x0000d996:    bd10        ..      POP      {r4,pc}
    $d.14
    __arm_cp.8_0
        0x0000d998:    0000e698    ....    DCD    59032
    __arm_cp.8_1
        0x0000d99c:    50000214    ...P    DCD    1342177812
    __arm_cp.8_2
        0x0000d9a0:    50000218    ...P    DCD    1342177816
    __arm_cp.8_3
        0x0000d9a4:    fff0ff0f    ....    DCD    4293984015
    $t.33
    WDT_IRQHandler
        0x0000d9a8:    b580        ..      PUSH     {r7,lr}
        0x0000d9aa:    480a        .H      LDR      r0,[pc,#40] ; [0xd9d4] = 0x40004000
        0x0000d9ac:    6800        .h      LDR      r0,[r0,#0]
        0x0000d9ae:    2108        .!      MOVS     r1,#8
        0x0000d9b0:    4008        .@      ANDS     r0,r0,r1
        0x0000d9b2:    08c0        ..      LSRS     r0,r0,#3
        0x0000d9b4:    2801        .(      CMP      r0,#1
        0x0000d9b6:    d10b        ..      BNE      0xd9d0 ; WDT_IRQHandler + 40
        0x0000d9b8:    e7ff        ..      B        0xd9ba ; WDT_IRQHandler + 18
        0x0000d9ba:    4806        .H      LDR      r0,[pc,#24] ; [0xd9d4] = 0x40004000
        0x0000d9bc:    6801        .h      LDR      r1,[r0,#0]
        0x0000d9be:    2208        ."      MOVS     r2,#8
        0x0000d9c0:    4311        .C      ORRS     r1,r1,r2
        0x0000d9c2:    2224        $"      MOVS     r2,#0x24
        0x0000d9c4:    4391        .C      BICS     r1,r1,r2
        0x0000d9c6:    6001        .`      STR      r1,[r0,#0]
        0x0000d9c8:    4803        .H      LDR      r0,[pc,#12] ; [0xd9d8] = 0xe6f0
        0x0000d9ca:    f000f9c1    ....    BL       __0printf ; 0xdd50
        0x0000d9ce:    e7ff        ..      B        0xd9d0 ; WDT_IRQHandler + 40
        0x0000d9d0:    bd80        ..      POP      {r7,pc}
        0x0000d9d2:    46c0        .F      MOV      r8,r8
    $d.34
    __arm_cp.20_0
        0x0000d9d4:    40004000    .@.@    DCD    1073758208
    __arm_cp.20_1
        0x0000d9d8:    0000e6f0    ....    DCD    59120
    $t.38
    bsp_nu220x_systems_init
        0x0000d9dc:    b580        ..      PUSH     {r7,lr}
        0x0000d9de:    f7fffe1d    ....    BL       SYS_UnlockReg ; 0xd61c
        0x0000d9e2:    f7fffddd    ....    BL       SYS_Init ; 0xd5a0
        0x0000d9e6:    f000f805    ....    BL       bsp_nu220x_systick_enable ; 0xd9f4
        0x0000d9ea:    2002        .       MOVS     r0,#2
        0x0000d9ec:    f7fff8ec    ....    BL       CLK_EnableModuleClock ; 0xcbc8
        0x0000d9f0:    bd80        ..      POP      {r7,pc}
        0x0000d9f2:    0000        ..      MOVS     r0,r0
    bsp_nu220x_systick_enable
        0x0000d9f4:    b580        ..      PUSH     {r7,lr}
        0x0000d9f6:    b086        ..      SUB      sp,sp,#0x18
        0x0000d9f8:    f000f83c    ..<.    BL       bsp_nuc220x_TIMER0_init ; 0xda74
        0x0000d9fc:    f7fffd98    ....    BL       SB_Timer1_Init ; 0xd530
        0x0000da00:    483e        >H      LDR      r0,[pc,#248] ; [0xdafc] = 0x5e800002
        0x0000da02:    9005        ..      STR      r0,[sp,#0x14]
        0x0000da04:    f7fff8e0    ....    BL       CLK_EnableModuleClock ; 0xcbc8
        0x0000da08:    2007        .       MOVS     r0,#7
        0x0000da0a:    0201        ..      LSLS     r1,r0,#8
        0x0000da0c:    2200        ."      MOVS     r2,#0
        0x0000da0e:    9805        ..      LDR      r0,[sp,#0x14]
        0x0000da10:    f7fffba0    ....    BL       CLK_SetModuleClock ; 0xd154
        0x0000da14:    2001        .       MOVS     r0,#1
        0x0000da16:    06c1        ..      LSLS     r1,r0,#27
        0x0000da18:    4a13        .J      LDR      r2,[pc,#76] ; [0xda68] = 0x40010000
        0x0000da1a:    9004        ..      STR      r0,[sp,#0x10]
        0x0000da1c:    4610        .F      MOV      r0,r2
        0x0000da1e:    9b04        ..      LDR      r3,[sp,#0x10]
        0x0000da20:    9203        ..      STR      r2,[sp,#0xc]
        0x0000da22:    461a        .F      MOV      r2,r3
        0x0000da24:    f7fffee0    ....    BL       TIMER_Open ; 0xd7e8
        0x0000da28:    9903        ..      LDR      r1,[sp,#0xc]
        0x0000da2a:    680a        .h      LDR      r2,[r1,#0]
        0x0000da2c:    2317        .#      MOVS     r3,#0x17
        0x0000da2e:    431a        .C      ORRS     r2,r2,r3
        0x0000da30:    23e8        .#      MOVS     r3,#0xe8
        0x0000da32:    439a        .C      BICS     r2,r2,r3
        0x0000da34:    600a        .`      STR      r2,[r1,#0]
        0x0000da36:    227d        }"      MOVS     r2,#0x7d
        0x0000da38:    00d2        ..      LSLS     r2,r2,#3
        0x0000da3a:    4b0c        .K      LDR      r3,[pc,#48] ; [0xda6c] = 0x40010004
        0x0000da3c:    601a        .`      STR      r2,[r3,#0]
        0x0000da3e:    9002        ..      STR      r0,[sp,#8]
        0x0000da40:    4608        .F      MOV      r0,r1
        0x0000da42:    f7fffe6d    ..m.    BL       TIMER_EnableInt ; 0xd720
        0x0000da46:    2008        .       MOVS     r0,#8
        0x0000da48:    9001        ..      STR      r0,[sp,#4]
        0x0000da4a:    9904        ..      LDR      r1,[sp,#0x10]
        0x0000da4c:    f7fffd1c    ....    BL       NVIC_SetPriority ; 0xd488
        0x0000da50:    9801        ..      LDR      r0,[sp,#4]
        0x0000da52:    f7fffd09    ....    BL       NVIC_EnableIRQ ; 0xd468
        0x0000da56:    9803        ..      LDR      r0,[sp,#0xc]
        0x0000da58:    f7ffff01    ....    BL       TIMER_Start ; 0xd85e
        0x0000da5c:    4804        .H      LDR      r0,[pc,#16] ; [0xda70] = 0x40010020
        0x0000da5e:    f7fffefe    ....    BL       TIMER_Start ; 0xd85e
        0x0000da62:    b006        ..      ADD      sp,sp,#0x18
        0x0000da64:    bd80        ..      POP      {r7,pc}
        0x0000da66:    46c0        .F      MOV      r8,r8
    $d.5
    __arm_cp.2_1
        0x0000da68:    40010000    ...@    DCD    1073807360
    __arm_cp.2_2
        0x0000da6c:    40010004    ...@    DCD    1073807364
    __arm_cp.2_3
        0x0000da70:    40010020     ..@    DCD    1073807392
    $t.2
    bsp_nuc220x_TIMER0_init
        0x0000da74:    b580        ..      PUSH     {r7,lr}
        0x0000da76:    b086        ..      SUB      sp,sp,#0x18
        0x0000da78:    4820         H      LDR      r0,[pc,#128] ; [0xdafc] = 0x5e800002
        0x0000da7a:    9005        ..      STR      r0,[sp,#0x14]
        0x0000da7c:    f7fff8a4    ....    BL       CLK_EnableModuleClock ; 0xcbc8
        0x0000da80:    481f        .H      LDR      r0,[pc,#124] ; [0xdb00] = 0x5f000004
        0x0000da82:    9004        ..      STR      r0,[sp,#0x10]
        0x0000da84:    f7fff8a0    ....    BL       CLK_EnableModuleClock ; 0xcbc8
        0x0000da88:    481e        .H      LDR      r0,[pc,#120] ; [0xdb04] = 0x5f400005
        0x0000da8a:    9003        ..      STR      r0,[sp,#0xc]
        0x0000da8c:    f7fff89c    ....    BL       CLK_EnableModuleClock ; 0xcbc8
        0x0000da90:    2000        .       MOVS     r0,#0
        0x0000da92:    9905        ..      LDR      r1,[sp,#0x14]
        0x0000da94:    9002        ..      STR      r0,[sp,#8]
        0x0000da96:    4608        .F      MOV      r0,r1
        0x0000da98:    9902        ..      LDR      r1,[sp,#8]
        0x0000da9a:    9a02        ..      LDR      r2,[sp,#8]
        0x0000da9c:    f7fffb5a    ..Z.    BL       CLK_SetModuleClock ; 0xd154
        0x0000daa0:    2001        .       MOVS     r0,#1
        0x0000daa2:    0441        A.      LSLS     r1,r0,#17
        0x0000daa4:    9a04        ..      LDR      r2,[sp,#0x10]
        0x0000daa6:    9001        ..      STR      r0,[sp,#4]
        0x0000daa8:    4610        .F      MOV      r0,r2
        0x0000daaa:    9a02        ..      LDR      r2,[sp,#8]
        0x0000daac:    f7fffb52    ..R.    BL       CLK_SetModuleClock ; 0xd154
        0x0000dab0:    9803        ..      LDR      r0,[sp,#0xc]
        0x0000dab2:    9902        ..      LDR      r1,[sp,#8]
        0x0000dab4:    9a02        ..      LDR      r2,[sp,#8]
        0x0000dab6:    f7fffb4d    ..M.    BL       CLK_SetModuleClock ; 0xd154
        0x0000daba:    483b        ;H      LDR      r0,[pc,#236] ; [0xdba8] = 0x50000034
        0x0000dabc:    6801        .h      LDR      r1,[r0,#0]
        0x0000dabe:    2203        ."      MOVS     r2,#3
        0x0000dac0:    4391        .C      BICS     r1,r1,r2
        0x0000dac2:    6001        .`      STR      r1,[r0,#0]
        0x0000dac4:    6801        .h      LDR      r1,[r0,#0]
        0x0000dac6:    4311        .C      ORRS     r1,r1,r2
        0x0000dac8:    6001        .`      STR      r1,[r0,#0]
        0x0000daca:    6801        .h      LDR      r1,[r0,#0]
        0x0000dacc:    4a0e        .J      LDR      r2,[pc,#56] ; [0xdb08] = 0xfffff2f8
        0x0000dace:    4011        .@      ANDS     r1,r1,r2
        0x0000dad0:    6001        .`      STR      r1,[r0,#0]
        0x0000dad2:    6801        .h      LDR      r1,[r0,#0]
        0x0000dad4:    4a0d        .J      LDR      r2,[pc,#52] ; [0xdb0c] = 0xd07
        0x0000dad6:    4311        .C      ORRS     r1,r1,r2
        0x0000dad8:    6001        .`      STR      r1,[r0,#0]
        0x0000dada:    480d        .H      LDR      r0,[pc,#52] ; [0xdb10] = 0x50000050
        0x0000dadc:    6801        .h      LDR      r1,[r0,#0]
        0x0000dade:    2211        ."      MOVS     r2,#0x11
        0x0000dae0:    0692        ..      LSLS     r2,r2,#26
        0x0000dae2:    4391        .C      BICS     r1,r1,r2
        0x0000dae4:    6001        .`      STR      r1,[r0,#0]
        0x0000dae6:    6801        .h      LDR      r1,[r0,#0]
        0x0000dae8:    9a01        ..      LDR      r2,[sp,#4]
        0x0000daea:    0693        ..      LSLS     r3,r2,#26
        0x0000daec:    4319        .C      ORRS     r1,r1,r3
        0x0000daee:    6001        .`      STR      r1,[r0,#0]
        0x0000daf0:    4808        .H      LDR      r0,[pc,#32] ; [0xdb14] = 0x5000005c
        0x0000daf2:    9902        ..      LDR      r1,[sp,#8]
        0x0000daf4:    6001        .`      STR      r1,[r0,#0]
        0x0000daf6:    b006        ..      ADD      sp,sp,#0x18
        0x0000daf8:    bd80        ..      POP      {r7,pc}
        0x0000dafa:    46c0        .F      MOV      r8,r8
    $d.3
    __arm_cp.1_0
        0x0000dafc:    5e800002    ...^    DCD    1585446914
    __arm_cp.1_1
        0x0000db00:    5f000004    ..._    DCD    1593835524
    __arm_cp.1_2
        0x0000db04:    5f400005    ..@_    DCD    1598029829
    __arm_cp.1_4
        0x0000db08:    fffff2f8    ....    DCD    4294963960
    __arm_cp.1_5
        0x0000db0c:    00000d07    ....    DCD    3335
    __arm_cp.1_6
        0x0000db10:    50000050    P..P    DCD    1342177360
    __arm_cp.1_7
        0x0000db14:    5000005c    \..P    DCD    1342177372
    $t.0
    bsp_nuc220x_UART_init
        0x0000db18:    b580        ..      PUSH     {r7,lr}
        0x0000db1a:    b082        ..      SUB      sp,sp,#8
        0x0000db1c:    9001        ..      STR      r0,[sp,#4]
        0x0000db1e:    9100        ..      STR      r1,[sp,#0]
        0x0000db20:    9801        ..      LDR      r0,[sp,#4]
        0x0000db22:    4961        aI      LDR      r1,[pc,#388] ; [0xdca8] = 0x40050000
        0x0000db24:    4288        .B      CMP      r0,r1
        0x0000db26:    d104        ..      BNE      0xdb32 ; bsp_nuc220x_UART_init + 26
        0x0000db28:    e7ff        ..      B        0xdb2a ; bsp_nuc220x_UART_init + 18
        0x0000db2a:    481d        .H      LDR      r0,[pc,#116] ; [0xdba0] = 0x57803d10
        0x0000db2c:    f7fff84c    ..L.    BL       CLK_EnableModuleClock ; 0xcbc8
        0x0000db30:    e009        ..      B        0xdb46 ; bsp_nuc220x_UART_init + 46
        0x0000db32:    9801        ..      LDR      r0,[sp,#4]
        0x0000db34:    495d        ]I      LDR      r1,[pc,#372] ; [0xdcac] = 0x40150000
        0x0000db36:    4288        .B      CMP      r0,r1
        0x0000db38:    d104        ..      BNE      0xdb44 ; bsp_nuc220x_UART_init + 44
        0x0000db3a:    e7ff        ..      B        0xdb3c ; bsp_nuc220x_UART_init + 36
        0x0000db3c:    4817        .H      LDR      r0,[pc,#92] ; [0xdb9c] = 0x57803d11
        0x0000db3e:    f7fff843    ..C.    BL       CLK_EnableModuleClock ; 0xcbc8
        0x0000db42:    e7ff        ..      B        0xdb44 ; bsp_nuc220x_UART_init + 44
        0x0000db44:    e7ff        ..      B        0xdb46 ; bsp_nuc220x_UART_init + 46
        0x0000db46:    4817        .H      LDR      r0,[pc,#92] ; [0xdba4] = 0x50000214
        0x0000db48:    6801        .h      LDR      r1,[r0,#0]
        0x0000db4a:    2203        ."      MOVS     r2,#3
        0x0000db4c:    0612        ..      LSLS     r2,r2,#24
        0x0000db4e:    4391        .C      BICS     r1,r1,r2
        0x0000db50:    6001        .`      STR      r1,[r0,#0]
        0x0000db52:    6801        .h      LDR      r1,[r0,#0]
        0x0000db54:    6001        .`      STR      r1,[r0,#0]
        0x0000db56:    9801        ..      LDR      r0,[sp,#4]
        0x0000db58:    4953        SI      LDR      r1,[pc,#332] ; [0xdca8] = 0x40050000
        0x0000db5a:    4288        .B      CMP      r0,r1
        0x0000db5c:    d109        ..      BNE      0xdb72 ; bsp_nuc220x_UART_init + 90
        0x0000db5e:    e7ff        ..      B        0xdb60 ; bsp_nuc220x_UART_init + 72
        0x0000db60:    4811        .H      LDR      r0,[pc,#68] ; [0xdba8] = 0x50000034
        0x0000db62:    6801        .h      LDR      r1,[r0,#0]
        0x0000db64:    2203        ."      MOVS     r2,#3
        0x0000db66:    4391        .C      BICS     r1,r1,r2
        0x0000db68:    6001        .`      STR      r1,[r0,#0]
        0x0000db6a:    6801        .h      LDR      r1,[r0,#0]
        0x0000db6c:    4311        .C      ORRS     r1,r1,r2
        0x0000db6e:    6001        .`      STR      r1,[r0,#0]
        0x0000db70:    e00e        ..      B        0xdb90 ; bsp_nuc220x_UART_init + 120
        0x0000db72:    9801        ..      LDR      r0,[sp,#4]
        0x0000db74:    494d        MI      LDR      r1,[pc,#308] ; [0xdcac] = 0x40150000
        0x0000db76:    4288        .B      CMP      r0,r1
        0x0000db78:    d109        ..      BNE      0xdb8e ; bsp_nuc220x_UART_init + 118
        0x0000db7a:    e7ff        ..      B        0xdb7c ; bsp_nuc220x_UART_init + 100
        0x0000db7c:    480a        .H      LDR      r0,[pc,#40] ; [0xdba8] = 0x50000034
        0x0000db7e:    6801        .h      LDR      r1,[r0,#0]
        0x0000db80:    2230        0"      MOVS     r2,#0x30
        0x0000db82:    4391        .C      BICS     r1,r1,r2
        0x0000db84:    6001        .`      STR      r1,[r0,#0]
        0x0000db86:    6801        .h      LDR      r1,[r0,#0]
        0x0000db88:    4311        .C      ORRS     r1,r1,r2
        0x0000db8a:    6001        .`      STR      r1,[r0,#0]
        0x0000db8c:    e7ff        ..      B        0xdb8e ; bsp_nuc220x_UART_init + 118
        0x0000db8e:    e7ff        ..      B        0xdb90 ; bsp_nuc220x_UART_init + 120
        0x0000db90:    9801        ..      LDR      r0,[sp,#4]
        0x0000db92:    9900        ..      LDR      r1,[sp,#0]
        0x0000db94:    f7fffe94    ....    BL       UART_Open ; 0xd8c0
        0x0000db98:    b002        ..      ADD      sp,sp,#8
        0x0000db9a:    bd80        ..      POP      {r7,pc}
    $d.1
    __arm_cp.0_2
        0x0000db9c:    57803d11    .=.W    DCD    1468022033
    __arm_cp.0_3
        0x0000dba0:    57803d10    .=.W    DCD    1468022032
    __arm_cp.0_4
        0x0000dba4:    50000214    ...P    DCD    1342177812
    __arm_cp.0_5
        0x0000dba8:    50000034    4..P    DCD    1342177332
    $t.3
    bsp_nuc220x_UART_receive_data
        0x0000dbac:    b084        ..      SUB      sp,sp,#0x10
        0x0000dbae:    4613        .F      MOV      r3,r2
        0x0000dbb0:    9003        ..      STR      r0,[sp,#0xc]
        0x0000dbb2:    9102        ..      STR      r1,[sp,#8]
        0x0000dbb4:    a801        ..      ADD      r0,sp,#4
        0x0000dbb6:    7002        .p      STRB     r2,[r0,#0]
        0x0000dbb8:    4668        hF      MOV      r0,sp
        0x0000dbba:    2100        .!      MOVS     r1,#0
        0x0000dbbc:    7001        .p      STRB     r1,[r0,#0]
        0x0000dbbe:    e7ff        ..      B        0xdbc0 ; bsp_nuc220x_UART_receive_data + 20
        0x0000dbc0:    4668        hF      MOV      r0,sp
        0x0000dbc2:    7800        .x      LDRB     r0,[r0,#0]
        0x0000dbc4:    a901        ..      ADD      r1,sp,#4
        0x0000dbc6:    7809        .x      LDRB     r1,[r1,#0]
        0x0000dbc8:    4288        .B      CMP      r0,r1
        0x0000dbca:    da14        ..      BGE      0xdbf6 ; bsp_nuc220x_UART_receive_data + 74
        0x0000dbcc:    e7ff        ..      B        0xdbce ; bsp_nuc220x_UART_receive_data + 34
        0x0000dbce:    e7ff        ..      B        0xdbd0 ; bsp_nuc220x_UART_receive_data + 36
        0x0000dbd0:    9803        ..      LDR      r0,[sp,#0xc]
        0x0000dbd2:    69c0        .i      LDR      r0,[r0,#0x1c]
        0x0000dbd4:    07c0        ..      LSLS     r0,r0,#31
        0x0000dbd6:    2800        .(      CMP      r0,#0
        0x0000dbd8:    d101        ..      BNE      0xdbde ; bsp_nuc220x_UART_receive_data + 50
        0x0000dbda:    e7ff        ..      B        0xdbdc ; bsp_nuc220x_UART_receive_data + 48
        0x0000dbdc:    e7f8        ..      B        0xdbd0 ; bsp_nuc220x_UART_receive_data + 36
        0x0000dbde:    9803        ..      LDR      r0,[sp,#0xc]
        0x0000dbe0:    6800        .h      LDR      r0,[r0,#0]
        0x0000dbe2:    9902        ..      LDR      r1,[sp,#8]
        0x0000dbe4:    466a        jF      MOV      r2,sp
        0x0000dbe6:    7812        .x      LDRB     r2,[r2,#0]
        0x0000dbe8:    5488        .T      STRB     r0,[r1,r2]
        0x0000dbea:    e7ff        ..      B        0xdbec ; bsp_nuc220x_UART_receive_data + 64
        0x0000dbec:    9800        ..      LDR      r0,[sp,#0]
        0x0000dbee:    1c40        @.      ADDS     r0,r0,#1
        0x0000dbf0:    4669        iF      MOV      r1,sp
        0x0000dbf2:    7008        .p      STRB     r0,[r1,#0]
        0x0000dbf4:    e7e4        ..      B        0xdbc0 ; bsp_nuc220x_UART_receive_data + 20
        0x0000dbf6:    b004        ..      ADD      sp,sp,#0x10
        0x0000dbf8:    4770        pG      BX       lr
    bsp_nuc220x_UART_send_data
        0x0000dbfa:    b084        ..      SUB      sp,sp,#0x10
        0x0000dbfc:    4613        .F      MOV      r3,r2
        0x0000dbfe:    9003        ..      STR      r0,[sp,#0xc]
        0x0000dc00:    9102        ..      STR      r1,[sp,#8]
        0x0000dc02:    a801        ..      ADD      r0,sp,#4
        0x0000dc04:    7002        .p      STRB     r2,[r0,#0]
        0x0000dc06:    4668        hF      MOV      r0,sp
        0x0000dc08:    2100        .!      MOVS     r1,#0
        0x0000dc0a:    7001        .p      STRB     r1,[r0,#0]
        0x0000dc0c:    e7ff        ..      B        0xdc0e ; bsp_nuc220x_UART_send_data + 20
        0x0000dc0e:    4668        hF      MOV      r0,sp
        0x0000dc10:    7800        .x      LDRB     r0,[r0,#0]
        0x0000dc12:    a901        ..      ADD      r1,sp,#4
        0x0000dc14:    7809        .x      LDRB     r1,[r1,#0]
        0x0000dc16:    4288        .B      CMP      r0,r1
        0x0000dc18:    da14        ..      BGE      0xdc44 ; bsp_nuc220x_UART_send_data + 74
        0x0000dc1a:    e7ff        ..      B        0xdc1c ; bsp_nuc220x_UART_send_data + 34
        0x0000dc1c:    9802        ..      LDR      r0,[sp,#8]
        0x0000dc1e:    4669        iF      MOV      r1,sp
        0x0000dc20:    7809        .x      LDRB     r1,[r1,#0]
        0x0000dc22:    5c40        @\      LDRB     r0,[r0,r1]
        0x0000dc24:    9903        ..      LDR      r1,[sp,#0xc]
        0x0000dc26:    6008        .`      STR      r0,[r1,#0]
        0x0000dc28:    e7ff        ..      B        0xdc2a ; bsp_nuc220x_UART_send_data + 48
        0x0000dc2a:    9803        ..      LDR      r0,[sp,#0xc]
        0x0000dc2c:    69c0        .i      LDR      r0,[r0,#0x1c]
        0x0000dc2e:    0780        ..      LSLS     r0,r0,#30
        0x0000dc30:    2800        .(      CMP      r0,#0
        0x0000dc32:    d401        ..      BMI      0xdc38 ; bsp_nuc220x_UART_send_data + 62
        0x0000dc34:    e7ff        ..      B        0xdc36 ; bsp_nuc220x_UART_send_data + 60
        0x0000dc36:    e7f8        ..      B        0xdc2a ; bsp_nuc220x_UART_send_data + 48
        0x0000dc38:    e7ff        ..      B        0xdc3a ; bsp_nuc220x_UART_send_data + 64
        0x0000dc3a:    9800        ..      LDR      r0,[sp,#0]
        0x0000dc3c:    1c40        @.      ADDS     r0,r0,#1
        0x0000dc3e:    4669        iF      MOV      r1,sp
        0x0000dc40:    7008        .p      STRB     r0,[r1,#0]
        0x0000dc42:    e7e4        ..      B        0xdc0e ; bsp_nuc220x_UART_send_data + 20
        0x0000dc44:    b004        ..      ADD      sp,sp,#0x10
        0x0000dc46:    4770        pG      BX       lr
    fputc
        0x0000dc48:    b580        ..      PUSH     {r7,lr}
        0x0000dc4a:    b082        ..      SUB      sp,sp,#8
        0x0000dc4c:    9001        ..      STR      r0,[sp,#4]
        0x0000dc4e:    9100        ..      STR      r1,[sp,#0]
        0x0000dc50:    9801        ..      LDR      r0,[sp,#4]
        0x0000dc52:    f7fffcf5    ....    BL       SendChar ; 0xd640
        0x0000dc56:    9801        ..      LDR      r0,[sp,#4]
        0x0000dc58:    b002        ..      ADD      sp,sp,#8
        0x0000dc5a:    bd80        ..      POP      {r7,pc}
    main
        0x0000dc5c:    b580        ..      PUSH     {r7,lr}
        0x0000dc5e:    b084        ..      SUB      sp,sp,#0x10
        0x0000dc60:    2000        .       MOVS     r0,#0
        0x0000dc62:    9003        ..      STR      r0,[sp,#0xc]
        0x0000dc64:    9002        ..      STR      r0,[sp,#8]
        0x0000dc66:    f7fffeb9    ....    BL       bsp_nu220x_systems_init ; 0xd9dc
        0x0000dc6a:    204b        K       MOVS     r0,#0x4b
        0x0000dc6c:    0240        @.      LSLS     r0,r0,#9
        0x0000dc6e:    490e        .I      LDR      r1,[pc,#56] ; [0xdca8] = 0x40050000
        0x0000dc70:    9001        ..      STR      r0,[sp,#4]
        0x0000dc72:    4608        .F      MOV      r0,r1
        0x0000dc74:    9901        ..      LDR      r1,[sp,#4]
        0x0000dc76:    f7ffff4f    ..O.    BL       bsp_nuc220x_UART_init ; 0xdb18
        0x0000dc7a:    480c        .H      LDR      r0,[pc,#48] ; [0xdcac] = 0x40150000
        0x0000dc7c:    9000        ..      STR      r0,[sp,#0]
        0x0000dc7e:    9901        ..      LDR      r1,[sp,#4]
        0x0000dc80:    f7ffff4a    ..J.    BL       bsp_nuc220x_UART_init ; 0xdb18
        0x0000dc84:    480a        .H      LDR      r0,[pc,#40] ; [0xdcb0] = 0x50004000
        0x0000dc86:    2101        .!      MOVS     r1,#1
        0x0000dc88:    9a02        ..      LDR      r2,[sp,#8]
        0x0000dc8a:    f7fffba7    ....    BL       GPIO_SetMode ; 0xd3dc
        0x0000dc8e:    4909        .I      LDR      r1,[pc,#36] ; [0xdcb4] = 0xe808
        0x0000dc90:    220d        ."      MOVS     r2,#0xd
        0x0000dc92:    9800        ..      LDR      r0,[sp,#0]
        0x0000dc94:    f7ffffb1    ....    BL       bsp_nuc220x_UART_send_data ; 0xdbfa
        0x0000dc98:    f7fefdc2    ....    BL       BL_Enable_APROM_Update ; 0xc820
        0x0000dc9c:    f7fefe14    ....    BL       BL_PreProcess ; 0xc8c8
        0x0000dca0:    e7ff        ..      B        0xdca2 ; main + 70
        0x0000dca2:    f7feff39    ..9.    BL       BL_Process ; 0xcb18
        0x0000dca6:    e7fc        ..      B        0xdca2 ; main + 70
    $d.1
    __arm_cp.0_0
        0x0000dca8:    40050000    ...@    DCD    1074069504
    __arm_cp.0_1
        0x0000dcac:    40150000    ...@    DCD    1075118080
    __arm_cp.0_2
        0x0000dcb0:    50004000    .@.P    DCD    1342193664
    __arm_cp.0_3
        0x0000dcb4:    0000e808    ....    DCD    59400
    $t.2
    stackDump
        0x0000dcb8:    b580        ..      PUSH     {r7,lr}
        0x0000dcba:    b088        ..      SUB      sp,sp,#0x20
        0x0000dcbc:    9007        ..      STR      r0,[sp,#0x1c]
        0x0000dcbe:    9807        ..      LDR      r0,[sp,#0x1c]
        0x0000dcc0:    6801        .h      LDR      r1,[r0,#0]
        0x0000dcc2:    481b        .H      LDR      r0,[pc,#108] ; [0xdd30] = 0xe7a8
        0x0000dcc4:    f000f844    ..D.    BL       __0printf ; 0xdd50
        0x0000dcc8:    9907        ..      LDR      r1,[sp,#0x1c]
        0x0000dcca:    6849        Ih      LDR      r1,[r1,#4]
        0x0000dccc:    4a19        .J      LDR      r2,[pc,#100] ; [0xdd34] = 0xe7b4
        0x0000dcce:    9006        ..      STR      r0,[sp,#0x18]
        0x0000dcd0:    4610        .F      MOV      r0,r2
        0x0000dcd2:    f000f83d    ..=.    BL       __0printf ; 0xdd50
        0x0000dcd6:    9907        ..      LDR      r1,[sp,#0x1c]
        0x0000dcd8:    6889        .h      LDR      r1,[r1,#8]
        0x0000dcda:    4a17        .J      LDR      r2,[pc,#92] ; [0xdd38] = 0xe7c0
        0x0000dcdc:    9005        ..      STR      r0,[sp,#0x14]
        0x0000dcde:    4610        .F      MOV      r0,r2
        0x0000dce0:    f000f836    ..6.    BL       __0printf ; 0xdd50
        0x0000dce4:    9907        ..      LDR      r1,[sp,#0x1c]
        0x0000dce6:    68c9        .h      LDR      r1,[r1,#0xc]
        0x0000dce8:    4a14        .J      LDR      r2,[pc,#80] ; [0xdd3c] = 0xe7cc
        0x0000dcea:    9004        ..      STR      r0,[sp,#0x10]
        0x0000dcec:    4610        .F      MOV      r0,r2
        0x0000dcee:    f000f82f    ../.    BL       __0printf ; 0xdd50
        0x0000dcf2:    9907        ..      LDR      r1,[sp,#0x1c]
        0x0000dcf4:    6909        .i      LDR      r1,[r1,#0x10]
        0x0000dcf6:    4a12        .J      LDR      r2,[pc,#72] ; [0xdd40] = 0xe7f0
        0x0000dcf8:    9003        ..      STR      r0,[sp,#0xc]
        0x0000dcfa:    4610        .F      MOV      r0,r2
        0x0000dcfc:    f000f828    ..(.    BL       __0printf ; 0xdd50
        0x0000dd00:    9907        ..      LDR      r1,[sp,#0x1c]
        0x0000dd02:    6949        Ii      LDR      r1,[r1,#0x14]
        0x0000dd04:    4a0f        .J      LDR      r2,[pc,#60] ; [0xdd44] = 0xe7e4
        0x0000dd06:    9002        ..      STR      r0,[sp,#8]
        0x0000dd08:    4610        .F      MOV      r0,r2
        0x0000dd0a:    f000f821    ..!.    BL       __0printf ; 0xdd50
        0x0000dd0e:    9907        ..      LDR      r1,[sp,#0x1c]
        0x0000dd10:    6989        .i      LDR      r1,[r1,#0x18]
        0x0000dd12:    4a0d        .J      LDR      r2,[pc,#52] ; [0xdd48] = 0xe7d8
        0x0000dd14:    9001        ..      STR      r0,[sp,#4]
        0x0000dd16:    4610        .F      MOV      r0,r2
        0x0000dd18:    f000f81a    ....    BL       __0printf ; 0xdd50
        0x0000dd1c:    9907        ..      LDR      r1,[sp,#0x1c]
        0x0000dd1e:    69c9        .i      LDR      r1,[r1,#0x1c]
        0x0000dd20:    4a0a        .J      LDR      r2,[pc,#40] ; [0xdd4c] = 0xe7fc
        0x0000dd22:    9000        ..      STR      r0,[sp,#0]
        0x0000dd24:    4610        .F      MOV      r0,r2
        0x0000dd26:    f000f813    ....    BL       __0printf ; 0xdd50
        0x0000dd2a:    b008        ..      ADD      sp,sp,#0x20
        0x0000dd2c:    bd80        ..      POP      {r7,pc}
        0x0000dd2e:    46c0        .F      MOV      r8,r8
    $d.3
    __arm_cp.1_0
        0x0000dd30:    0000e7a8    ....    DCD    59304
    __arm_cp.1_1
        0x0000dd34:    0000e7b4    ....    DCD    59316
    __arm_cp.1_2
        0x0000dd38:    0000e7c0    ....    DCD    59328
    __arm_cp.1_3
        0x0000dd3c:    0000e7cc    ....    DCD    59340
    __arm_cp.1_4
        0x0000dd40:    0000e7f0    ....    DCD    59376
    __arm_cp.1_5
        0x0000dd44:    0000e7e4    ....    DCD    59364
    __arm_cp.1_6
        0x0000dd48:    0000e7d8    ....    DCD    59352
    __arm_cp.1_7
        0x0000dd4c:    0000e7fc    ....    DCD    59388
    $t
    i.__0printf
    __0printf
    __1printf
    __2printf
    __c89printf
    printf
        0x0000dd50:    b40f        ..      PUSH     {r0-r3}
        0x0000dd52:    b510        ..      PUSH     {r4,lr}
        0x0000dd54:    a903        ..      ADD      r1,sp,#0xc
        0x0000dd56:    4b04        .K      LDR      r3,[pc,#16] ; [0xdd68] = 0xdc49
        0x0000dd58:    4a04        .J      LDR      r2,[pc,#16] ; [0xdd6c] = 0x20000100
        0x0000dd5a:    9802        ..      LDR      r0,[sp,#8]
        0x0000dd5c:    f000f8e8    ....    BL       _printf_core ; 0xdf30
        0x0000dd60:    bc10        ..      POP      {r4}
        0x0000dd62:    bc08        ..      POP      {r3}
        0x0000dd64:    b004        ..      ADD      sp,sp,#0x10
        0x0000dd66:    4718        .G      BX       r3
    $d
        0x0000dd68:    0000dc49    I...    DCD    56393
        0x0000dd6c:    20000100    ...     DCD    536871168
    $t
    i.__ARM_clz
    __ARM_clz
        0x0000dd70:    2120         !      MOVS     r1,#0x20
        0x0000dd72:    0c02        ..      LSRS     r2,r0,#16
        0x0000dd74:    d001        ..      BEQ      0xdd7a ; __ARM_clz + 10
        0x0000dd76:    2110        .!      MOVS     r1,#0x10
        0x0000dd78:    4610        .F      MOV      r0,r2
        0x0000dd7a:    0a02        ..      LSRS     r2,r0,#8
        0x0000dd7c:    d001        ..      BEQ      0xdd82 ; __ARM_clz + 18
        0x0000dd7e:    4610        .F      MOV      r0,r2
        0x0000dd80:    3908        .9      SUBS     r1,r1,#8
        0x0000dd82:    0902        ..      LSRS     r2,r0,#4
        0x0000dd84:    d001        ..      BEQ      0xdd8a ; __ARM_clz + 26
        0x0000dd86:    4610        .F      MOV      r0,r2
        0x0000dd88:    1f09        ..      SUBS     r1,r1,#4
        0x0000dd8a:    0882        ..      LSRS     r2,r0,#2
        0x0000dd8c:    d001        ..      BEQ      0xdd92 ; __ARM_clz + 34
        0x0000dd8e:    4610        .F      MOV      r0,r2
        0x0000dd90:    1e89        ..      SUBS     r1,r1,#2
        0x0000dd92:    0842        B.      LSRS     r2,r0,#1
        0x0000dd94:    d001        ..      BEQ      0xdd9a ; __ARM_clz + 42
        0x0000dd96:    1e88        ..      SUBS     r0,r1,#2
        0x0000dd98:    4770        pG      BX       lr
        0x0000dd9a:    1a08        ..      SUBS     r0,r1,r0
        0x0000dd9c:    4770        pG      BX       lr
    i.__scatterload_copy
    __scatterload_copy
        0x0000dd9e:    e002        ..      B        0xdda6 ; __scatterload_copy + 8
        0x0000dda0:    c808        ..      LDM      r0!,{r3}
        0x0000dda2:    1f12        ..      SUBS     r2,r2,#4
        0x0000dda4:    c108        ..      STM      r1!,{r3}
        0x0000dda6:    2a00        .*      CMP      r2,#0
        0x0000dda8:    d1fa        ..      BNE      0xdda0 ; __scatterload_copy + 2
        0x0000ddaa:    4770        pG      BX       lr
    i.__scatterload_null
    __scatterload_null
        0x0000ddac:    4770        pG      BX       lr
    i.__scatterload_zeroinit
    __scatterload_zeroinit
        0x0000ddae:    2000        .       MOVS     r0,#0
        0x0000ddb0:    e001        ..      B        0xddb6 ; __scatterload_zeroinit + 8
        0x0000ddb2:    c101        ..      STM      r1!,{r0}
        0x0000ddb4:    1f12        ..      SUBS     r2,r2,#4
        0x0000ddb6:    2a00        .*      CMP      r2,#0
        0x0000ddb8:    d1fb        ..      BNE      0xddb2 ; __scatterload_zeroinit + 4
        0x0000ddba:    4770        pG      BX       lr
    i._fp_digits
    _fp_digits
        0x0000ddbc:    b5f0        ..      PUSH     {r4-r7,lr}
        0x0000ddbe:    b41f        ..      PUSH     {r0-r4}
        0x0000ddc0:    b086        ..      SUB      sp,sp,#0x18
        0x0000ddc2:    9809        ..      LDR      r0,[sp,#0x24]
        0x0000ddc4:    9a08        ..      LDR      r2,[sp,#0x20]
        0x0000ddc6:    0d03        ..      LSRS     r3,r0,#20
        0x0000ddc8:    2100        .!      MOVS     r1,#0
        0x0000ddca:    4302        .C      ORRS     r2,r2,r0
        0x0000ddcc:    d014        ..      BEQ      0xddf8 ; _fp_digits + 60
        0x0000ddce:    4851        QH      LDR      r0,[pc,#324] ; [0xdf14] = 0xfffffc01
        0x0000ddd0:    4a51        QJ      LDR      r2,[pc,#324] ; [0xdf18] = 0x4d10
        0x0000ddd2:    1818        ..      ADDS     r0,r3,r0
        0x0000ddd4:    4350        PC      MULS     r0,r2,r0
        0x0000ddd6:    1405        ..      ASRS     r5,r0,#16
        0x0000ddd8:    9811        ..      LDR      r0,[sp,#0x44]
        0x0000ddda:    2801        .(      CMP      r0,#1
        0x0000dddc:    9810        ..      LDR      r0,[sp,#0x40]
        0x0000ddde:    d01a        ..      BEQ      0xde16 ; _fp_digits + 90
        0x0000dde0:    1a28        (.      SUBS     r0,r5,r0
        0x0000dde2:    1c40        @.      ADDS     r0,r0,#1
        0x0000dde4:    2600        .&      MOVS     r6,#0
        0x0000dde6:    4f4d        MO      LDR      r7,[pc,#308] ; [0xdf1c] = 0x40140000
        0x0000dde8:    494d        MI      LDR      r1,[pc,#308] ; [0xdf20] = 0x3ff00000
        0x0000ddea:    9600        ..      STR      r6,[sp,#0]
        0x0000ddec:    9101        ..      STR      r1,[sp,#4]
        0x0000ddee:    9004        ..      STR      r0,[sp,#0x10]
        0x0000ddf0:    2800        .(      CMP      r0,#0
        0x0000ddf2:    da12        ..      BGE      0xde1a ; _fp_digits + 94
        0x0000ddf4:    4244        DB      RSBS     r4,r0,#0
        0x0000ddf6:    e011        ..      B        0xde1c ; _fp_digits + 96
        0x0000ddf8:    9811        ..      LDR      r0,[sp,#0x44]
        0x0000ddfa:    2401        .$      MOVS     r4,#1
        0x0000ddfc:    a349        I.      ADR      r3,{pc}+0x128 ; 0xdf24
        0x0000ddfe:    2801        .(      CMP      r0,#1
        0x0000de00:    d101        ..      BNE      0xde06 ; _fp_digits + 74
        0x0000de02:    9810        ..      LDR      r0,[sp,#0x40]
        0x0000de04:    43c1        .C      MVNS     r1,r0
        0x0000de06:    9806        ..      LDR      r0,[sp,#0x18]
        0x0000de08:    9a11        ..      LDR      r2,[sp,#0x44]
        0x0000de0a:    6084        .`      STR      r4,[r0,#8]
        0x0000de0c:    6003        .`      STR      r3,[r0,#0]
        0x0000de0e:    60c2        .`      STR      r2,[r0,#0xc]
        0x0000de10:    6041        A`      STR      r1,[r0,#4]
        0x0000de12:    b00b        ..      ADD      sp,sp,#0x2c
        0x0000de14:    bdf0        ..      POP      {r4-r7,pc}
        0x0000de16:    4240        @B      RSBS     r0,r0,#0
        0x0000de18:    e7e4        ..      B        0xdde4 ; _fp_digits + 40
        0x0000de1a:    4604        .F      MOV      r4,r0
        0x0000de1c:    0521        !.      LSLS     r1,r4,#20
        0x0000de1e:    2000        .       MOVS     r0,#0
        0x0000de20:    4a3f        ?J      LDR      r2,[pc,#252] ; [0xdf20] = 0x3ff00000
        0x0000de22:    1c00        ..      ADDS     r0,r0,#0
        0x0000de24:    4151        QA      ADCS     r1,r1,r2
        0x0000de26:    9103        ..      STR      r1,[sp,#0xc]
        0x0000de28:    9002        ..      STR      r0,[sp,#8]
        0x0000de2a:    e012        ..      B        0xde52 ; _fp_digits + 150
        0x0000de2c:    07e0        ..      LSLS     r0,r4,#31
        0x0000de2e:    d007        ..      BEQ      0xde40 ; _fp_digits + 132
        0x0000de30:    4632        2F      MOV      r2,r6
        0x0000de32:    463b        ;F      MOV      r3,r7
        0x0000de34:    9901        ..      LDR      r1,[sp,#4]
        0x0000de36:    9800        ..      LDR      r0,[sp,#0]
        0x0000de38:    f7fefa6a    ..j.    BL       __aeabi_dmul ; 0xc310
        0x0000de3c:    9101        ..      STR      r1,[sp,#4]
        0x0000de3e:    9000        ..      STR      r0,[sp,#0]
        0x0000de40:    4632        2F      MOV      r2,r6
        0x0000de42:    463b        ;F      MOV      r3,r7
        0x0000de44:    4610        .F      MOV      r0,r2
        0x0000de46:    4619        .F      MOV      r1,r3
        0x0000de48:    f7fefa62    ..b.    BL       __aeabi_dmul ; 0xc310
        0x0000de4c:    4606        .F      MOV      r6,r0
        0x0000de4e:    460f        .F      MOV      r7,r1
        0x0000de50:    1064        d.      ASRS     r4,r4,#1
        0x0000de52:    2c00        .,      CMP      r4,#0
        0x0000de54:    d1ea        ..      BNE      0xde2c ; _fp_digits + 112
        0x0000de56:    9804        ..      LDR      r0,[sp,#0x10]
        0x0000de58:    9b03        ..      LDR      r3,[sp,#0xc]
        0x0000de5a:    2800        .(      CMP      r0,#0
        0x0000de5c:    9a02        ..      LDR      r2,[sp,#8]
        0x0000de5e:    9909        ..      LDR      r1,[sp,#0x24]
        0x0000de60:    9808        ..      LDR      r0,[sp,#0x20]
        0x0000de62:    da06        ..      BGE      0xde72 ; _fp_digits + 182
        0x0000de64:    f7fefa54    ..T.    BL       __aeabi_dmul ; 0xc310
        0x0000de68:    9b01        ..      LDR      r3,[sp,#4]
        0x0000de6a:    9a00        ..      LDR      r2,[sp,#0]
        0x0000de6c:    f7fefa50    ..P.    BL       __aeabi_dmul ; 0xc310
        0x0000de70:    e005        ..      B        0xde7e ; _fp_digits + 194
        0x0000de72:    f7fefab5    ....    BL       __aeabi_ddiv ; 0xc3e0
        0x0000de76:    9b01        ..      LDR      r3,[sp,#4]
        0x0000de78:    9a00        ..      LDR      r2,[sp,#0]
        0x0000de7a:    f7fefab1    ....    BL       __aeabi_ddiv ; 0xc3e0
        0x0000de7e:    4604        .F      MOV      r4,r0
        0x0000de80:    460e        .F      MOV      r6,r1
        0x0000de82:    2200        ."      MOVS     r2,#0
        0x0000de84:    4b28        (K      LDR      r3,[pc,#160] ; [0xdf28] = 0x43f00000
        0x0000de86:    f7fefb43    ..C.    BL       __aeabi_cdrcmple ; 0xc510
        0x0000de8a:    d803        ..      BHI      0xde94 ; _fp_digits + 216
        0x0000de8c:    2000        .       MOVS     r0,#0
        0x0000de8e:    43c0        .C      MVNS     r0,r0
        0x0000de90:    4601        .F      MOV      r1,r0
        0x0000de92:    e007        ..      B        0xdea4 ; _fp_digits + 232
        0x0000de94:    2200        ."      MOVS     r2,#0
        0x0000de96:    4b25        %K      LDR      r3,[pc,#148] ; [0xdf2c] = 0x3fe00000
        0x0000de98:    4620         F      MOV      r0,r4
        0x0000de9a:    4631        1F      MOV      r1,r6
        0x0000de9c:    f7fef986    ....    BL       __I$use$fp ; 0xc1ac
        0x0000dea0:    f7fefb16    ....    BL       __aeabi_d2ulz ; 0xc4d0
        0x0000dea4:    2410        .$      MOVS     r4,#0x10
        0x0000dea6:    e009        ..      B        0xdebc ; _fp_digits + 256
        0x0000dea8:    2c00        .,      CMP      r4,#0
        0x0000deaa:    db0a        ..      BLT      0xdec2 ; _fp_digits + 262
        0x0000deac:    220a        ."      MOVS     r2,#0xa
        0x0000deae:    2300        .#      MOVS     r3,#0
        0x0000deb0:    f7fef94c    ..L.    BL       __aeabi_uldivmod ; 0xc14c
        0x0000deb4:    9b07        ..      LDR      r3,[sp,#0x1c]
        0x0000deb6:    3230        02      ADDS     r2,r2,#0x30
        0x0000deb8:    551a        .U      STRB     r2,[r3,r4]
        0x0000deba:    1e64        d.      SUBS     r4,r4,#1
        0x0000debc:    4602        .F      MOV      r2,r0
        0x0000debe:    430a        .C      ORRS     r2,r2,r1
        0x0000dec0:    d1f2        ..      BNE      0xdea8 ; _fp_digits + 236
        0x0000dec2:    2211        ."      MOVS     r2,#0x11
        0x0000dec4:    1c64        d.      ADDS     r4,r4,#1
        0x0000dec6:    9b07        ..      LDR      r3,[sp,#0x1c]
        0x0000dec8:    1b12        ..      SUBS     r2,r2,r4
        0x0000deca:    191c        ..      ADDS     r4,r3,r4
        0x0000decc:    9b11        ..      LDR      r3,[sp,#0x44]
        0x0000dece:    2b01        .+      CMP      r3,#1
        0x0000ded0:    d003        ..      BEQ      0xdeda ; _fp_digits + 286
        0x0000ded2:    2301        .#      MOVS     r3,#1
        0x0000ded4:    4308        .C      ORRS     r0,r0,r1
        0x0000ded6:    d10e        ..      BNE      0xdef6 ; _fp_digits + 314
        0x0000ded8:    e00a        ..      B        0xdef0 ; _fp_digits + 308
        0x0000deda:    4308        .C      ORRS     r0,r0,r1
        0x0000dedc:    d004        ..      BEQ      0xdee8 ; _fp_digits + 300
        0x0000dede:    2011        .       MOVS     r0,#0x11
        0x0000dee0:    9010        ..      STR      r0,[sp,#0x40]
        0x0000dee2:    2000        .       MOVS     r0,#0
        0x0000dee4:    9011        ..      STR      r0,[sp,#0x44]
        0x0000dee6:    e777        w.      B        0xddd8 ; _fp_digits + 28
        0x0000dee8:    9810        ..      LDR      r0,[sp,#0x40]
        0x0000deea:    1a15        ..      SUBS     r5,r2,r0
        0x0000deec:    1e6d        m.      SUBS     r5,r5,#1
        0x0000deee:    e00b        ..      B        0xdf08 ; _fp_digits + 332
        0x0000def0:    9810        ..      LDR      r0,[sp,#0x40]
        0x0000def2:    4282        .B      CMP      r2,r0
        0x0000def4:    dd02        ..      BLE      0xdefc ; _fp_digits + 320
        0x0000def6:    2300        .#      MOVS     r3,#0
        0x0000def8:    1c6d        m.      ADDS     r5,r5,#1
        0x0000defa:    e003        ..      B        0xdf04 ; _fp_digits + 328
        0x0000defc:    4282        .B      CMP      r2,r0
        0x0000defe:    da01        ..      BGE      0xdf04 ; _fp_digits + 328
        0x0000df00:    2300        .#      MOVS     r3,#0
        0x0000df02:    1e6d        m.      SUBS     r5,r5,#1
        0x0000df04:    2b00        .+      CMP      r3,#0
        0x0000df06:    d0ee        ..      BEQ      0xdee6 ; _fp_digits + 298
        0x0000df08:    9806        ..      LDR      r0,[sp,#0x18]
        0x0000df0a:    9911        ..      LDR      r1,[sp,#0x44]
        0x0000df0c:    6082        .`      STR      r2,[r0,#8]
        0x0000df0e:    60c1        .`      STR      r1,[r0,#0xc]
        0x0000df10:    c030        0.      STM      r0!,{r4,r5}
        0x0000df12:    e77e        ~.      B        0xde12 ; _fp_digits + 86
    $d
        0x0000df14:    fffffc01    ....    DCD    4294966273
        0x0000df18:    00004d10    .M..    DCD    19728
        0x0000df1c:    40140000    ...@    DCD    1075052544
        0x0000df20:    3ff00000    ...?    DCD    1072693248
        0x0000df24:    00000030    0...    DCD    48
        0x0000df28:    43f00000    ...C    DCD    1139802112
        0x0000df2c:    3fe00000    ...?    DCD    1071644672
    $t
    i._printf_core
    _printf_core
        0x0000df30:    b5ff        ..      PUSH     {r0-r7,lr}
        0x0000df32:    b097        ..      SUB      sp,sp,#0x5c
        0x0000df34:    4606        .F      MOV      r6,r0
        0x0000df36:    2500        .%      MOVS     r5,#0
        0x0000df38:    e218        ..      B        0xe36c ; _printf_core + 1084
        0x0000df3a:    2825        %(      CMP      r0,#0x25
        0x0000df3c:    d177        w.      BNE      0xe02e ; _printf_core + 254
        0x0000df3e:    2400        .$      MOVS     r4,#0
        0x0000df40:    4627        'F      MOV      r7,r4
        0x0000df42:    49fd        .I      LDR      r1,[pc,#1012] ; [0xe338] = 0x12809
        0x0000df44:    9404        ..      STR      r4,[sp,#0x10]
        0x0000df46:    e000        ..      B        0xdf4a ; _printf_core + 26
        0x0000df48:    4304        .C      ORRS     r4,r4,r0
        0x0000df4a:    1c76        v.      ADDS     r6,r6,#1
        0x0000df4c:    7832        2x      LDRB     r2,[r6,#0]
        0x0000df4e:    2001        .       MOVS     r0,#1
        0x0000df50:    3a20         :      SUBS     r2,r2,#0x20
        0x0000df52:    4090        .@      LSLS     r0,r0,r2
        0x0000df54:    4208        .B      TST      r0,r1
        0x0000df56:    d1f7        ..      BNE      0xdf48 ; _printf_core + 24
        0x0000df58:    7830        0x      LDRB     r0,[r6,#0]
        0x0000df5a:    282a        *(      CMP      r0,#0x2a
        0x0000df5c:    d00e        ..      BEQ      0xdf7c ; _printf_core + 76
        0x0000df5e:    2202        ."      MOVS     r2,#2
        0x0000df60:    7830        0x      LDRB     r0,[r6,#0]
        0x0000df62:    4601        .F      MOV      r1,r0
        0x0000df64:    3930        09      SUBS     r1,r1,#0x30
        0x0000df66:    2909        .)      CMP      r1,#9
        0x0000df68:    d816        ..      BHI      0xdf98 ; _printf_core + 104
        0x0000df6a:    9904        ..      LDR      r1,[sp,#0x10]
        0x0000df6c:    230a        .#      MOVS     r3,#0xa
        0x0000df6e:    4359        YC      MULS     r1,r3,r1
        0x0000df70:    3930        09      SUBS     r1,r1,#0x30
        0x0000df72:    1840        @.      ADDS     r0,r0,r1
        0x0000df74:    4314        .C      ORRS     r4,r4,r2
        0x0000df76:    1c76        v.      ADDS     r6,r6,#1
        0x0000df78:    9004        ..      STR      r0,[sp,#0x10]
        0x0000df7a:    e7f1        ..      B        0xdf60 ; _printf_core + 48
        0x0000df7c:    9818        ..      LDR      r0,[sp,#0x60]
        0x0000df7e:    c802        ..      LDM      r0!,{r1}
        0x0000df80:    9104        ..      STR      r1,[sp,#0x10]
        0x0000df82:    9018        ..      STR      r0,[sp,#0x60]
        0x0000df84:    2900        .)      CMP      r1,#0
        0x0000df86:    da04        ..      BGE      0xdf92 ; _printf_core + 98
        0x0000df88:    2001        .       MOVS     r0,#1
        0x0000df8a:    0340        @.      LSLS     r0,r0,#13
        0x0000df8c:    4304        .C      ORRS     r4,r4,r0
        0x0000df8e:    4248        HB      RSBS     r0,r1,#0
        0x0000df90:    9004        ..      STR      r0,[sp,#0x10]
        0x0000df92:    2002        .       MOVS     r0,#2
        0x0000df94:    4304        .C      ORRS     r4,r4,r0
        0x0000df96:    1c76        v.      ADDS     r6,r6,#1
        0x0000df98:    7830        0x      LDRB     r0,[r6,#0]
        0x0000df9a:    282e        .(      CMP      r0,#0x2e
        0x0000df9c:    d114        ..      BNE      0xdfc8 ; _printf_core + 152
        0x0000df9e:    2004        .       MOVS     r0,#4
        0x0000dfa0:    4304        .C      ORRS     r4,r4,r0
        0x0000dfa2:    7870        px      LDRB     r0,[r6,#1]
        0x0000dfa4:    1c76        v.      ADDS     r6,r6,#1
        0x0000dfa6:    282a        *(      CMP      r0,#0x2a
        0x0000dfa8:    d109        ..      BNE      0xdfbe ; _printf_core + 142
        0x0000dfaa:    9818        ..      LDR      r0,[sp,#0x60]
        0x0000dfac:    1c76        v.      ADDS     r6,r6,#1
        0x0000dfae:    c880        ..      LDM      r0!,{r7}
        0x0000dfb0:    9018        ..      STR      r0,[sp,#0x60]
        0x0000dfb2:    e009        ..      B        0xdfc8 ; _printf_core + 152
        0x0000dfb4:    210a        .!      MOVS     r1,#0xa
        0x0000dfb6:    434f        OC      MULS     r7,r1,r7
        0x0000dfb8:    3f30        0?      SUBS     r7,r7,#0x30
        0x0000dfba:    19c7        ..      ADDS     r7,r0,r7
        0x0000dfbc:    1c76        v.      ADDS     r6,r6,#1
        0x0000dfbe:    7830        0x      LDRB     r0,[r6,#0]
        0x0000dfc0:    4601        .F      MOV      r1,r0
        0x0000dfc2:    3930        09      SUBS     r1,r1,#0x30
        0x0000dfc4:    2909        .)      CMP      r1,#9
        0x0000dfc6:    d9f5        ..      BLS      0xdfb4 ; _printf_core + 132
        0x0000dfc8:    7830        0x      LDRB     r0,[r6,#0]
        0x0000dfca:    286c        l(      CMP      r0,#0x6c
        0x0000dfcc:    d010        ..      BEQ      0xdff0 ; _printf_core + 192
        0x0000dfce:    dc06        ..      BGT      0xdfde ; _printf_core + 174
        0x0000dfd0:    284c        L(      CMP      r0,#0x4c
        0x0000dfd2:    d01a        ..      BEQ      0xe00a ; _printf_core + 218
        0x0000dfd4:    2868        h(      CMP      r0,#0x68
        0x0000dfd6:    d00e        ..      BEQ      0xdff6 ; _printf_core + 198
        0x0000dfd8:    286a        j(      CMP      r0,#0x6a
        0x0000dfda:    d117        ..      BNE      0xe00c ; _printf_core + 220
        0x0000dfdc:    e004        ..      B        0xdfe8 ; _printf_core + 184
        0x0000dfde:    2874        t(      CMP      r0,#0x74
        0x0000dfe0:    d013        ..      BEQ      0xe00a ; _printf_core + 218
        0x0000dfe2:    287a        z(      CMP      r0,#0x7a
        0x0000dfe4:    d112        ..      BNE      0xe00c ; _printf_core + 220
        0x0000dfe6:    e010        ..      B        0xe00a ; _printf_core + 218
        0x0000dfe8:    2001        .       MOVS     r0,#1
        0x0000dfea:    0540        @.      LSLS     r0,r0,#21
        0x0000dfec:    4304        .C      ORRS     r4,r4,r0
        0x0000dfee:    e00c        ..      B        0xe00a ; _printf_core + 218
        0x0000dff0:    2101        .!      MOVS     r1,#1
        0x0000dff2:    0509        ..      LSLS     r1,r1,#20
        0x0000dff4:    e001        ..      B        0xdffa ; _printf_core + 202
        0x0000dff6:    2103        .!      MOVS     r1,#3
        0x0000dff8:    0509        ..      LSLS     r1,r1,#20
        0x0000dffa:    430c        .C      ORRS     r4,r4,r1
        0x0000dffc:    7871        qx      LDRB     r1,[r6,#1]
        0x0000dffe:    4281        .B      CMP      r1,r0
        0x0000e000:    d103        ..      BNE      0xe00a ; _printf_core + 218
        0x0000e002:    2001        .       MOVS     r0,#1
        0x0000e004:    0500        ..      LSLS     r0,r0,#20
        0x0000e006:    1824        $.      ADDS     r4,r4,r0
        0x0000e008:    1c76        v.      ADDS     r6,r6,#1
        0x0000e00a:    1c76        v.      ADDS     r6,r6,#1
        0x0000e00c:    7830        0x      LDRB     r0,[r6,#0]
        0x0000e00e:    9011        ..      STR      r0,[sp,#0x44]
        0x0000e010:    2866        f(      CMP      r0,#0x66
        0x0000e012:    d00b        ..      BEQ      0xe02c ; _printf_core + 252
        0x0000e014:    dc13        ..      BGT      0xe03e ; _printf_core + 270
        0x0000e016:    2858        X(      CMP      r0,#0x58
        0x0000e018:    d07d        }.      BEQ      0xe116 ; _printf_core + 486
        0x0000e01a:    dc09        ..      BGT      0xe030 ; _printf_core + 256
        0x0000e01c:    2800        .(      CMP      r0,#0
        0x0000e01e:    d07b        {.      BEQ      0xe118 ; _printf_core + 488
        0x0000e020:    2845        E(      CMP      r0,#0x45
        0x0000e022:    d0f6        ..      BEQ      0xe012 ; _printf_core + 226
        0x0000e024:    2846        F(      CMP      r0,#0x46
        0x0000e026:    d0f4        ..      BEQ      0xe012 ; _printf_core + 226
        0x0000e028:    2847        G(      CMP      r0,#0x47
        0x0000e02a:    d11a        ..      BNE      0xe062 ; _printf_core + 306
        0x0000e02c:    e1a5        ..      B        0xe37a ; _printf_core + 1098
        0x0000e02e:    e018        ..      B        0xe062 ; _printf_core + 306
        0x0000e030:    2863        c(      CMP      r0,#0x63
        0x0000e032:    d035        5.      BEQ      0xe0a0 ; _printf_core + 368
        0x0000e034:    2864        d(      CMP      r0,#0x64
        0x0000e036:    d070        p.      BEQ      0xe11a ; _printf_core + 490
        0x0000e038:    2865        e(      CMP      r0,#0x65
        0x0000e03a:    d112        ..      BNE      0xe062 ; _printf_core + 306
        0x0000e03c:    e19d        ..      B        0xe37a ; _printf_core + 1098
        0x0000e03e:    2870        p(      CMP      r0,#0x70
        0x0000e040:    d06c        l.      BEQ      0xe11c ; _printf_core + 492
        0x0000e042:    dc08        ..      BGT      0xe056 ; _printf_core + 294
        0x0000e044:    2867        g(      CMP      r0,#0x67
        0x0000e046:    d0f1        ..      BEQ      0xe02c ; _printf_core + 252
        0x0000e048:    2869        i(      CMP      r0,#0x69
        0x0000e04a:    d07b        {.      BEQ      0xe144 ; _printf_core + 532
        0x0000e04c:    286e        n(      CMP      r0,#0x6e
        0x0000e04e:    d00d        ..      BEQ      0xe06c ; _printf_core + 316
        0x0000e050:    286f        o(      CMP      r0,#0x6f
        0x0000e052:    d106        ..      BNE      0xe062 ; _printf_core + 306
        0x0000e054:    e0ba        ..      B        0xe1cc ; _printf_core + 668
        0x0000e056:    2873        s(      CMP      r0,#0x73
        0x0000e058:    d02e        ..      BEQ      0xe0b8 ; _printf_core + 392
        0x0000e05a:    2875        u(      CMP      r0,#0x75
        0x0000e05c:    d071        q.      BEQ      0xe142 ; _printf_core + 530
        0x0000e05e:    2878        x(      CMP      r0,#0x78
        0x0000e060:    d059        Y.      BEQ      0xe116 ; _printf_core + 486
        0x0000e062:    9a1a        ..      LDR      r2,[sp,#0x68]
        0x0000e064:    9919        ..      LDR      r1,[sp,#0x64]
        0x0000e066:    4790        .G      BLX      r2
        0x0000e068:    1c6d        m.      ADDS     r5,r5,#1
        0x0000e06a:    e17e        ~.      B        0xe36a ; _printf_core + 1082
        0x0000e06c:    0260        `.      LSLS     r0,r4,#9
        0x0000e06e:    0f40        @.      LSRS     r0,r0,#29
        0x0000e070:    2802        .(      CMP      r0,#2
        0x0000e072:    d009        ..      BEQ      0xe088 ; _printf_core + 344
        0x0000e074:    2803        .(      CMP      r0,#3
        0x0000e076:    d00d        ..      BEQ      0xe094 ; _printf_core + 356
        0x0000e078:    2804        .(      CMP      r0,#4
        0x0000e07a:    9818        ..      LDR      r0,[sp,#0x60]
        0x0000e07c:    6801        .h      LDR      r1,[r0,#0]
        0x0000e07e:    d00d        ..      BEQ      0xe09c ; _printf_core + 364
        0x0000e080:    600d        .`      STR      r5,[r1,#0]
        0x0000e082:    1d00        ..      ADDS     r0,r0,#4
        0x0000e084:    9018        ..      STR      r0,[sp,#0x60]
        0x0000e086:    e170        p.      B        0xe36a ; _printf_core + 1082
        0x0000e088:    9818        ..      LDR      r0,[sp,#0x60]
        0x0000e08a:    17ea        ..      ASRS     r2,r5,#31
        0x0000e08c:    6801        .h      LDR      r1,[r0,#0]
        0x0000e08e:    600d        .`      STR      r5,[r1,#0]
        0x0000e090:    604a        J`      STR      r2,[r1,#4]
        0x0000e092:    e7f6        ..      B        0xe082 ; _printf_core + 338
        0x0000e094:    9818        ..      LDR      r0,[sp,#0x60]
        0x0000e096:    6801        .h      LDR      r1,[r0,#0]
        0x0000e098:    800d        ..      STRH     r5,[r1,#0]
        0x0000e09a:    e7f2        ..      B        0xe082 ; _printf_core + 338
        0x0000e09c:    700d        .p      STRB     r5,[r1,#0]
        0x0000e09e:    e7f0        ..      B        0xe082 ; _printf_core + 338
        0x0000e0a0:    9818        ..      LDR      r0,[sp,#0x60]
        0x0000e0a2:    466a        jF      MOV      r2,sp
        0x0000e0a4:    7801        .x      LDRB     r1,[r0,#0]
        0x0000e0a6:    7211        .r      STRB     r1,[r2,#8]
        0x0000e0a8:    1d00        ..      ADDS     r0,r0,#4
        0x0000e0aa:    9018        ..      STR      r0,[sp,#0x60]
        0x0000e0ac:    2000        .       MOVS     r0,#0
        0x0000e0ae:    7250        Pr      STRB     r0,[r2,#9]
        0x0000e0b0:    a802        ..      ADD      r0,sp,#8
        0x0000e0b2:    9000        ..      STR      r0,[sp,#0]
        0x0000e0b4:    2001        .       MOVS     r0,#1
        0x0000e0b6:    e005        ..      B        0xe0c4 ; _printf_core + 404
        0x0000e0b8:    9818        ..      LDR      r0,[sp,#0x60]
        0x0000e0ba:    c802        ..      LDM      r0!,{r1}
        0x0000e0bc:    9018        ..      STR      r0,[sp,#0x60]
        0x0000e0be:    2000        .       MOVS     r0,#0
        0x0000e0c0:    9100        ..      STR      r1,[sp,#0]
        0x0000e0c2:    43c0        .C      MVNS     r0,r0
        0x0000e0c4:    0761        a.      LSLS     r1,r4,#29
        0x0000e0c6:    d50d        ..      BPL      0xe0e4 ; _printf_core + 436
        0x0000e0c8:    2100        .!      MOVS     r1,#0
        0x0000e0ca:    e001        ..      B        0xe0d0 ; _printf_core + 416
        0x0000e0cc:    9901        ..      LDR      r1,[sp,#4]
        0x0000e0ce:    1c49        I.      ADDS     r1,r1,#1
        0x0000e0d0:    9101        ..      STR      r1,[sp,#4]
        0x0000e0d2:    42b9        .B      CMP      r1,r7
        0x0000e0d4:    da12        ..      BGE      0xe0fc ; _printf_core + 460
        0x0000e0d6:    4281        .B      CMP      r1,r0
        0x0000e0d8:    dbf8        ..      BLT      0xe0cc ; _printf_core + 412
        0x0000e0da:    9a00        ..      LDR      r2,[sp,#0]
        0x0000e0dc:    5c51        Q\      LDRB     r1,[r2,r1]
        0x0000e0de:    2900        .)      CMP      r1,#0
        0x0000e0e0:    d1f4        ..      BNE      0xe0cc ; _printf_core + 412
        0x0000e0e2:    e00b        ..      B        0xe0fc ; _printf_core + 460
        0x0000e0e4:    2100        .!      MOVS     r1,#0
        0x0000e0e6:    e001        ..      B        0xe0ec ; _printf_core + 444
        0x0000e0e8:    9901        ..      LDR      r1,[sp,#4]
        0x0000e0ea:    1c49        I.      ADDS     r1,r1,#1
        0x0000e0ec:    9101        ..      STR      r1,[sp,#4]
        0x0000e0ee:    4281        .B      CMP      r1,r0
        0x0000e0f0:    dbfa        ..      BLT      0xe0e8 ; _printf_core + 440
        0x0000e0f2:    9a01        ..      LDR      r2,[sp,#4]
        0x0000e0f4:    9900        ..      LDR      r1,[sp,#0]
        0x0000e0f6:    5c89        .\      LDRB     r1,[r1,r2]
        0x0000e0f8:    2900        .)      CMP      r1,#0
        0x0000e0fa:    d1f5        ..      BNE      0xe0e8 ; _printf_core + 440
        0x0000e0fc:    9901        ..      LDR      r1,[sp,#4]
        0x0000e0fe:    9804        ..      LDR      r0,[sp,#0x10]
        0x0000e100:    9b1a        ..      LDR      r3,[sp,#0x68]
        0x0000e102:    1a47        G.      SUBS     r7,r0,r1
        0x0000e104:    4621        !F      MOV      r1,r4
        0x0000e106:    4638        8F      MOV      r0,r7
        0x0000e108:    9a19        ..      LDR      r2,[sp,#0x64]
        0x0000e10a:    f000fa97    ....    BL       _printf_pre_padding ; 0xe63c
        0x0000e10e:    9901        ..      LDR      r1,[sp,#4]
        0x0000e110:    1940        @.      ADDS     r0,r0,r5
        0x0000e112:    1845        E.      ADDS     r5,r0,r1
        0x0000e114:    e00b        ..      B        0xe12e ; _printf_core + 510
        0x0000e116:    e04f        O.      B        0xe1b8 ; _printf_core + 648
        0x0000e118:    e12c        ,.      B        0xe374 ; _printf_core + 1092
        0x0000e11a:    e013        ..      B        0xe144 ; _printf_core + 532
        0x0000e11c:    e04e        N.      B        0xe1bc ; _printf_core + 652
        0x0000e11e:    9800        ..      LDR      r0,[sp,#0]
        0x0000e120:    9900        ..      LDR      r1,[sp,#0]
        0x0000e122:    7800        .x      LDRB     r0,[r0,#0]
        0x0000e124:    1c49        I.      ADDS     r1,r1,#1
        0x0000e126:    9100        ..      STR      r1,[sp,#0]
        0x0000e128:    9a1a        ..      LDR      r2,[sp,#0x68]
        0x0000e12a:    9919        ..      LDR      r1,[sp,#0x64]
        0x0000e12c:    4790        .G      BLX      r2
        0x0000e12e:    9801        ..      LDR      r0,[sp,#4]
        0x0000e130:    1e40        @.      SUBS     r0,r0,#1
        0x0000e132:    9001        ..      STR      r0,[sp,#4]
        0x0000e134:    1c40        @.      ADDS     r0,r0,#1
        0x0000e136:    d1f2        ..      BNE      0xe11e ; _printf_core + 494
        0x0000e138:    4621        !F      MOV      r1,r4
        0x0000e13a:    4638        8F      MOV      r0,r7
        0x0000e13c:    9b1a        ..      LDR      r3,[sp,#0x68]
        0x0000e13e:    9a19        ..      LDR      r2,[sp,#0x64]
        0x0000e140:    e110        ..      B        0xe364 ; _printf_core + 1076
        0x0000e142:    e037        7.      B        0xe1b4 ; _printf_core + 644
        0x0000e144:    200a        .       MOVS     r0,#0xa
        0x0000e146:    2100        .!      MOVS     r1,#0
        0x0000e148:    9000        ..      STR      r0,[sp,#0]
        0x0000e14a:    9101        ..      STR      r1,[sp,#4]
        0x0000e14c:    0260        `.      LSLS     r0,r4,#9
        0x0000e14e:    0f41        A.      LSRS     r1,r0,#29
        0x0000e150:    2902        .)      CMP      r1,#2
        0x0000e152:    d007        ..      BEQ      0xe164 ; _printf_core + 564
        0x0000e154:    9a18        ..      LDR      r2,[sp,#0x60]
        0x0000e156:    ca01        ..      LDM      r2!,{r0}
        0x0000e158:    9218        ..      STR      r2,[sp,#0x60]
        0x0000e15a:    17c2        ..      ASRS     r2,r0,#31
        0x0000e15c:    4694        .F      MOV      r12,r2
        0x0000e15e:    2903        .)      CMP      r1,#3
        0x0000e160:    d008        ..      BEQ      0xe174 ; _printf_core + 580
        0x0000e162:    e00a        ..      B        0xe17a ; _printf_core + 586
        0x0000e164:    9818        ..      LDR      r0,[sp,#0x60]
        0x0000e166:    1dc0        ..      ADDS     r0,r0,#7
        0x0000e168:    08c1        ..      LSRS     r1,r0,#3
        0x0000e16a:    00c9        ..      LSLS     r1,r1,#3
        0x0000e16c:    c905        ..      LDM      r1!,{r0,r2}
        0x0000e16e:    9118        ..      STR      r1,[sp,#0x60]
        0x0000e170:    4694        .F      MOV      r12,r2
        0x0000e172:    e007        ..      B        0xe184 ; _printf_core + 596
        0x0000e174:    b200        ..      SXTH     r0,r0
        0x0000e176:    17c2        ..      ASRS     r2,r0,#31
        0x0000e178:    4694        .F      MOV      r12,r2
        0x0000e17a:    2904        .)      CMP      r1,#4
        0x0000e17c:    d102        ..      BNE      0xe184 ; _printf_core + 596
        0x0000e17e:    b240        @.      SXTB     r0,r0
        0x0000e180:    17c1        ..      ASRS     r1,r0,#31
        0x0000e182:    468c        .F      MOV      r12,r1
        0x0000e184:    2200        ."      MOVS     r2,#0
        0x0000e186:    4661        aF      MOV      r1,r12
        0x0000e188:    4594        .E      CMP      r12,r2
        0x0000e18a:    da06        ..      BGE      0xe19a ; _printf_core + 618
        0x0000e18c:    460a        .F      MOV      r2,r1
        0x0000e18e:    2100        .!      MOVS     r1,#0
        0x0000e190:    4240        @B      RSBS     r0,r0,#0
        0x0000e192:    4191        .A      SBCS     r1,r1,r2
        0x0000e194:    468c        .F      MOV      r12,r1
        0x0000e196:    212d        -!      MOVS     r1,#0x2d
        0x0000e198:    e002        ..      B        0xe1a0 ; _printf_core + 624
        0x0000e19a:    0521        !.      LSLS     r1,r4,#20
        0x0000e19c:    d504        ..      BPL      0xe1a8 ; _printf_core + 632
        0x0000e19e:    212b        +!      MOVS     r1,#0x2b
        0x0000e1a0:    466a        jF      MOV      r2,sp
        0x0000e1a2:    7311        .s      STRB     r1,[r2,#0xc]
        0x0000e1a4:    2101        .!      MOVS     r1,#1
        0x0000e1a6:    e003        ..      B        0xe1b0 ; _printf_core + 640
        0x0000e1a8:    07e1        ..      LSLS     r1,r4,#31
        0x0000e1aa:    d001        ..      BEQ      0xe1b0 ; _printf_core + 640
        0x0000e1ac:    2120         !      MOVS     r1,#0x20
        0x0000e1ae:    e7f7        ..      B        0xe1a0 ; _printf_core + 624
        0x0000e1b0:    9102        ..      STR      r1,[sp,#8]
        0x0000e1b2:    e055        U.      B        0xe260 ; _printf_core + 816
        0x0000e1b4:    200a        .       MOVS     r0,#0xa
        0x0000e1b6:    e00a        ..      B        0xe1ce ; _printf_core + 670
        0x0000e1b8:    2010        .       MOVS     r0,#0x10
        0x0000e1ba:    e008        ..      B        0xe1ce ; _printf_core + 670
        0x0000e1bc:    2010        .       MOVS     r0,#0x10
        0x0000e1be:    9000        ..      STR      r0,[sp,#0]
        0x0000e1c0:    2100        .!      MOVS     r1,#0
        0x0000e1c2:    2004        .       MOVS     r0,#4
        0x0000e1c4:    4304        .C      ORRS     r4,r4,r0
        0x0000e1c6:    9101        ..      STR      r1,[sp,#4]
        0x0000e1c8:    2708        .'      MOVS     r7,#8
        0x0000e1ca:    e003        ..      B        0xe1d4 ; _printf_core + 676
        0x0000e1cc:    2008        .       MOVS     r0,#8
        0x0000e1ce:    2100        .!      MOVS     r1,#0
        0x0000e1d0:    9101        ..      STR      r1,[sp,#4]
        0x0000e1d2:    9000        ..      STR      r0,[sp,#0]
        0x0000e1d4:    0260        `.      LSLS     r0,r4,#9
        0x0000e1d6:    0f41        A.      LSRS     r1,r0,#29
        0x0000e1d8:    2902        .)      CMP      r1,#2
        0x0000e1da:    d007        ..      BEQ      0xe1ec ; _printf_core + 700
        0x0000e1dc:    9a18        ..      LDR      r2,[sp,#0x60]
        0x0000e1de:    ca01        ..      LDM      r2!,{r0}
        0x0000e1e0:    9218        ..      STR      r2,[sp,#0x60]
        0x0000e1e2:    2200        ."      MOVS     r2,#0
        0x0000e1e4:    4694        .F      MOV      r12,r2
        0x0000e1e6:    2903        .)      CMP      r1,#3
        0x0000e1e8:    d008        ..      BEQ      0xe1fc ; _printf_core + 716
        0x0000e1ea:    e008        ..      B        0xe1fe ; _printf_core + 718
        0x0000e1ec:    9818        ..      LDR      r0,[sp,#0x60]
        0x0000e1ee:    1dc0        ..      ADDS     r0,r0,#7
        0x0000e1f0:    08c1        ..      LSRS     r1,r0,#3
        0x0000e1f2:    00c9        ..      LSLS     r1,r1,#3
        0x0000e1f4:    c905        ..      LDM      r1!,{r0,r2}
        0x0000e1f6:    9118        ..      STR      r1,[sp,#0x60]
        0x0000e1f8:    4694        .F      MOV      r12,r2
        0x0000e1fa:    e003        ..      B        0xe204 ; _printf_core + 724
        0x0000e1fc:    b280        ..      UXTH     r0,r0
        0x0000e1fe:    2904        .)      CMP      r1,#4
        0x0000e200:    d100        ..      BNE      0xe204 ; _printf_core + 724
        0x0000e202:    b2c0        ..      UXTB     r0,r0
        0x0000e204:    2100        .!      MOVS     r1,#0
        0x0000e206:    9102        ..      STR      r1,[sp,#8]
        0x0000e208:    0721        !.      LSLS     r1,r4,#28
        0x0000e20a:    d529        ).      BPL      0xe260 ; _printf_core + 816
        0x0000e20c:    9911        ..      LDR      r1,[sp,#0x44]
        0x0000e20e:    2970        p)      CMP      r1,#0x70
        0x0000e210:    d006        ..      BEQ      0xe220 ; _printf_core + 752
        0x0000e212:    9a00        ..      LDR      r2,[sp,#0]
        0x0000e214:    2110        .!      MOVS     r1,#0x10
        0x0000e216:    9b01        ..      LDR      r3,[sp,#4]
        0x0000e218:    404a        J@      EORS     r2,r2,r1
        0x0000e21a:    431a        .C      ORRS     r2,r2,r3
        0x0000e21c:    d005        ..      BEQ      0xe22a ; _printf_core + 762
        0x0000e21e:    e00e        ..      B        0xe23e ; _printf_core + 782
        0x0000e220:    2140        @!      MOVS     r1,#0x40
        0x0000e222:    466a        jF      MOV      r2,sp
        0x0000e224:    7311        .s      STRB     r1,[r2,#0xc]
        0x0000e226:    2101        .!      MOVS     r1,#1
        0x0000e228:    e008        ..      B        0xe23c ; _printf_core + 780
        0x0000e22a:    4661        aF      MOV      r1,r12
        0x0000e22c:    4301        .C      ORRS     r1,r1,r0
        0x0000e22e:    d006        ..      BEQ      0xe23e ; _printf_core + 782
        0x0000e230:    2130        0!      MOVS     r1,#0x30
        0x0000e232:    466a        jF      MOV      r2,sp
        0x0000e234:    7311        .s      STRB     r1,[r2,#0xc]
        0x0000e236:    9911        ..      LDR      r1,[sp,#0x44]
        0x0000e238:    7351        Qs      STRB     r1,[r2,#0xd]
        0x0000e23a:    2102        .!      MOVS     r1,#2
        0x0000e23c:    9102        ..      STR      r1,[sp,#8]
        0x0000e23e:    9a00        ..      LDR      r2,[sp,#0]
        0x0000e240:    2108        .!      MOVS     r1,#8
        0x0000e242:    9b01        ..      LDR      r3,[sp,#4]
        0x0000e244:    404a        J@      EORS     r2,r2,r1
        0x0000e246:    431a        .C      ORRS     r2,r2,r3
        0x0000e248:    d10a        ..      BNE      0xe260 ; _printf_core + 816
        0x0000e24a:    4661        aF      MOV      r1,r12
        0x0000e24c:    4301        .C      ORRS     r1,r1,r0
        0x0000e24e:    d101        ..      BNE      0xe254 ; _printf_core + 804
        0x0000e250:    0761        a.      LSLS     r1,r4,#29
        0x0000e252:    d505        ..      BPL      0xe260 ; _printf_core + 816
        0x0000e254:    2130        0!      MOVS     r1,#0x30
        0x0000e256:    466a        jF      MOV      r2,sp
        0x0000e258:    7311        .s      STRB     r1,[r2,#0xc]
        0x0000e25a:    2101        .!      MOVS     r1,#1
        0x0000e25c:    1e7f        ..      SUBS     r7,r7,#1
        0x0000e25e:    9102        ..      STR      r1,[sp,#8]
        0x0000e260:    9911        ..      LDR      r1,[sp,#0x44]
        0x0000e262:    2958        X)      CMP      r1,#0x58
        0x0000e264:    d004        ..      BEQ      0xe270 ; _printf_core + 832
        0x0000e266:    a135        5.      ADR      r1,{pc}+0xd6 ; 0xe33c
        0x0000e268:    910e        ..      STR      r1,[sp,#0x38]
        0x0000e26a:    a90d        ..      ADD      r1,sp,#0x34
        0x0000e26c:    910d        ..      STR      r1,[sp,#0x34]
        0x0000e26e:    e00d        ..      B        0xe28c ; _printf_core + 860
        0x0000e270:    a137        7.      ADR      r1,{pc}+0xe0 ; 0xe350
        0x0000e272:    e7f9        ..      B        0xe268 ; _printf_core + 824
        0x0000e274:    4661        aF      MOV      r1,r12
        0x0000e276:    9b01        ..      LDR      r3,[sp,#4]
        0x0000e278:    9a00        ..      LDR      r2,[sp,#0]
        0x0000e27a:    f7fdff67    ..g.    BL       __aeabi_uldivmod ; 0xc14c
        0x0000e27e:    9b0e        ..      LDR      r3,[sp,#0x38]
        0x0000e280:    468c        .F      MOV      r12,r1
        0x0000e282:    5c9b        .\      LDRB     r3,[r3,r2]
        0x0000e284:    9a0d        ..      LDR      r2,[sp,#0x34]
        0x0000e286:    1e52        R.      SUBS     r2,r2,#1
        0x0000e288:    920d        ..      STR      r2,[sp,#0x34]
        0x0000e28a:    7013        .p      STRB     r3,[r2,#0]
        0x0000e28c:    4661        aF      MOV      r1,r12
        0x0000e28e:    4301        .C      ORRS     r1,r1,r0
        0x0000e290:    d1f0        ..      BNE      0xe274 ; _printf_core + 836
        0x0000e292:    980d        ..      LDR      r0,[sp,#0x34]
        0x0000e294:    a905        ..      ADD      r1,sp,#0x14
        0x0000e296:    1a08        ..      SUBS     r0,r1,r0
        0x0000e298:    3020         0      ADDS     r0,r0,#0x20
        0x0000e29a:    9001        ..      STR      r0,[sp,#4]
        0x0000e29c:    0760        `.      LSLS     r0,r4,#29
        0x0000e29e:    d503        ..      BPL      0xe2a8 ; _printf_core + 888
        0x0000e2a0:    2001        .       MOVS     r0,#1
        0x0000e2a2:    0400        ..      LSLS     r0,r0,#16
        0x0000e2a4:    4384        .C      BICS     r4,r4,r0
        0x0000e2a6:    e000        ..      B        0xe2aa ; _printf_core + 890
        0x0000e2a8:    2701        .'      MOVS     r7,#1
        0x0000e2aa:    9801        ..      LDR      r0,[sp,#4]
        0x0000e2ac:    4287        .B      CMP      r7,r0
        0x0000e2ae:    dd01        ..      BLE      0xe2b4 ; _printf_core + 900
        0x0000e2b0:    1a38        8.      SUBS     r0,r7,r0
        0x0000e2b2:    e000        ..      B        0xe2b6 ; _printf_core + 902
        0x0000e2b4:    2000        .       MOVS     r0,#0
        0x0000e2b6:    9901        ..      LDR      r1,[sp,#4]
        0x0000e2b8:    9000        ..      STR      r0,[sp,#0]
        0x0000e2ba:    1841        A.      ADDS     r1,r0,r1
        0x0000e2bc:    9802        ..      LDR      r0,[sp,#8]
        0x0000e2be:    1809        ..      ADDS     r1,r1,r0
        0x0000e2c0:    9804        ..      LDR      r0,[sp,#0x10]
        0x0000e2c2:    1a40        @.      SUBS     r0,r0,r1
        0x0000e2c4:    9004        ..      STR      r0,[sp,#0x10]
        0x0000e2c6:    03e0        ..      LSLS     r0,r4,#15
        0x0000e2c8:    d406        ..      BMI      0xe2d8 ; _printf_core + 936
        0x0000e2ca:    4621        !F      MOV      r1,r4
        0x0000e2cc:    9b1a        ..      LDR      r3,[sp,#0x68]
        0x0000e2ce:    9a19        ..      LDR      r2,[sp,#0x64]
        0x0000e2d0:    9804        ..      LDR      r0,[sp,#0x10]
        0x0000e2d2:    f000f9b3    ....    BL       _printf_pre_padding ; 0xe63c
        0x0000e2d6:    1945        E.      ADDS     r5,r0,r5
        0x0000e2d8:    2700        .'      MOVS     r7,#0
        0x0000e2da:    e006        ..      B        0xe2ea ; _printf_core + 954
        0x0000e2dc:    a803        ..      ADD      r0,sp,#0xc
        0x0000e2de:    9a1a        ..      LDR      r2,[sp,#0x68]
        0x0000e2e0:    5dc0        .]      LDRB     r0,[r0,r7]
        0x0000e2e2:    9919        ..      LDR      r1,[sp,#0x64]
        0x0000e2e4:    4790        .G      BLX      r2
        0x0000e2e6:    1c6d        m.      ADDS     r5,r5,#1
        0x0000e2e8:    1c7f        ..      ADDS     r7,r7,#1
        0x0000e2ea:    9802        ..      LDR      r0,[sp,#8]
        0x0000e2ec:    4287        .B      CMP      r7,r0
        0x0000e2ee:    dbf5        ..      BLT      0xe2dc ; _printf_core + 940
        0x0000e2f0:    03e0        ..      LSLS     r0,r4,#15
        0x0000e2f2:    d50c        ..      BPL      0xe30e ; _printf_core + 990
        0x0000e2f4:    4621        !F      MOV      r1,r4
        0x0000e2f6:    9b1a        ..      LDR      r3,[sp,#0x68]
        0x0000e2f8:    9a19        ..      LDR      r2,[sp,#0x64]
        0x0000e2fa:    9804        ..      LDR      r0,[sp,#0x10]
        0x0000e2fc:    f000f99e    ....    BL       _printf_pre_padding ; 0xe63c
        0x0000e300:    1945        E.      ADDS     r5,r0,r5
        0x0000e302:    e004        ..      B        0xe30e ; _printf_core + 990
        0x0000e304:    9a1a        ..      LDR      r2,[sp,#0x68]
        0x0000e306:    2030        0       MOVS     r0,#0x30
        0x0000e308:    9919        ..      LDR      r1,[sp,#0x64]
        0x0000e30a:    4790        .G      BLX      r2
        0x0000e30c:    1c6d        m.      ADDS     r5,r5,#1
        0x0000e30e:    9900        ..      LDR      r1,[sp,#0]
        0x0000e310:    1e48        H.      SUBS     r0,r1,#1
        0x0000e312:    9000        ..      STR      r0,[sp,#0]
        0x0000e314:    2900        .)      CMP      r1,#0
        0x0000e316:    dcf5        ..      BGT      0xe304 ; _printf_core + 980
        0x0000e318:    e008        ..      B        0xe32c ; _printf_core + 1020
        0x0000e31a:    980d        ..      LDR      r0,[sp,#0x34]
        0x0000e31c:    990d        ..      LDR      r1,[sp,#0x34]
        0x0000e31e:    7800        .x      LDRB     r0,[r0,#0]
        0x0000e320:    1c49        I.      ADDS     r1,r1,#1
        0x0000e322:    910d        ..      STR      r1,[sp,#0x34]
        0x0000e324:    9a1a        ..      LDR      r2,[sp,#0x68]
        0x0000e326:    9919        ..      LDR      r1,[sp,#0x64]
        0x0000e328:    4790        .G      BLX      r2
        0x0000e32a:    1c6d        m.      ADDS     r5,r5,#1
        0x0000e32c:    9901        ..      LDR      r1,[sp,#4]
        0x0000e32e:    1e48        H.      SUBS     r0,r1,#1
        0x0000e330:    9001        ..      STR      r0,[sp,#4]
        0x0000e332:    2900        .)      CMP      r1,#0
        0x0000e334:    dcf1        ..      BGT      0xe31a ; _printf_core + 1002
        0x0000e336:    e163        c.      B        0xe600 ; _printf_core + 1744
    $d
        0x0000e338:    00012809    .(..    DCD    75785
        0x0000e33c:    33323130    0123    DCD    858927408
        0x0000e340:    37363534    4567    DCD    926299444
        0x0000e344:    62613938    89ab    DCD    1650538808
        0x0000e348:    66656463    cdef    DCD    1717920867
        0x0000e34c:    00000000    ....    DCD    0
        0x0000e350:    33323130    0123    DCD    858927408
        0x0000e354:    37363534    4567    DCD    926299444
        0x0000e358:    42413938    89AB    DCD    1111570744
        0x0000e35c:    46454443    CDEF    DCD    1178944579
        0x0000e360:    00000000    ....    DCD    0
    $t
        0x0000e364:    f000f95a    ..Z.    BL       _printf_post_padding ; 0xe61c
        0x0000e368:    1945        E.      ADDS     r5,r0,r5
        0x0000e36a:    1c76        v.      ADDS     r6,r6,#1
        0x0000e36c:    7830        0x      LDRB     r0,[r6,#0]
        0x0000e36e:    2800        .(      CMP      r0,#0
        0x0000e370:    d000        ..      BEQ      0xe374 ; _printf_core + 1092
        0x0000e372:    e5e2        ..      B        0xdf3a ; _printf_core + 10
        0x0000e374:    4628        (F      MOV      r0,r5
        0x0000e376:    b01b        ..      ADD      sp,sp,#0x6c
        0x0000e378:    bdf0        ..      POP      {r4-r7,pc}
        0x0000e37a:    0760        `.      LSLS     r0,r4,#29
        0x0000e37c:    d400        ..      BMI      0xe380 ; _printf_core + 1104
        0x0000e37e:    2706        .'      MOVS     r7,#6
        0x0000e380:    9818        ..      LDR      r0,[sp,#0x60]
        0x0000e382:    1dc0        ..      ADDS     r0,r0,#7
        0x0000e384:    08c1        ..      LSRS     r1,r0,#3
        0x0000e386:    00c9        ..      LSLS     r1,r1,#3
        0x0000e388:    6848        Hh      LDR      r0,[r1,#4]
        0x0000e38a:    680a        .h      LDR      r2,[r1,#0]
        0x0000e38c:    3108        .1      ADDS     r1,r1,#8
        0x0000e38e:    0fc3        ..      LSRS     r3,r0,#31
        0x0000e390:    07db        ..      LSLS     r3,r3,#31
        0x0000e392:    9118        ..      STR      r1,[sp,#0x60]
        0x0000e394:    0019        ..      MOVS     r1,r3
        0x0000e396:    d001        ..      BEQ      0xe39c ; _printf_core + 1132
        0x0000e398:    a19c        ..      ADR      r1,{pc}+0x274 ; 0xe60c
        0x0000e39a:    e008        ..      B        0xe3ae ; _printf_core + 1150
        0x0000e39c:    0521        !.      LSLS     r1,r4,#20
        0x0000e39e:    d501        ..      BPL      0xe3a4 ; _printf_core + 1140
        0x0000e3a0:    a19b        ..      ADR      r1,{pc}+0x270 ; 0xe610
        0x0000e3a2:    e004        ..      B        0xe3ae ; _printf_core + 1150
        0x0000e3a4:    07e1        ..      LSLS     r1,r4,#31
        0x0000e3a6:    d001        ..      BEQ      0xe3ac ; _printf_core + 1148
        0x0000e3a8:    a19a        ..      ADR      r1,{pc}+0x26c ; 0xe614
        0x0000e3aa:    e000        ..      B        0xe3ae ; _printf_core + 1150
        0x0000e3ac:    a19a        ..      ADR      r1,{pc}+0x26c ; 0xe618
        0x0000e3ae:    0043        C.      LSLS     r3,r0,#1
        0x0000e3b0:    9811        ..      LDR      r0,[sp,#0x44]
        0x0000e3b2:    085b        [.      LSRS     r3,r3,#1
        0x0000e3b4:    9110        ..      STR      r1,[sp,#0x40]
        0x0000e3b6:    2865        e(      CMP      r0,#0x65
        0x0000e3b8:    d00c        ..      BEQ      0xe3d4 ; _printf_core + 1188
        0x0000e3ba:    dc06        ..      BGT      0xe3ca ; _printf_core + 1178
        0x0000e3bc:    2845        E(      CMP      r0,#0x45
        0x0000e3be:    d009        ..      BEQ      0xe3d4 ; _printf_core + 1188
        0x0000e3c0:    2846        F(      CMP      r0,#0x46
        0x0000e3c2:    d01d        ..      BEQ      0xe400 ; _printf_core + 1232
        0x0000e3c4:    2847        G(      CMP      r0,#0x47
        0x0000e3c6:    d141        A.      BNE      0xe44c ; _printf_core + 1308
        0x0000e3c8:    e041        A.      B        0xe44e ; _printf_core + 1310
        0x0000e3ca:    2866        f(      CMP      r0,#0x66
        0x0000e3cc:    d018        ..      BEQ      0xe400 ; _printf_core + 1232
        0x0000e3ce:    2867        g(      CMP      r0,#0x67
        0x0000e3d0:    d13c        <.      BNE      0xe44c ; _printf_core + 1308
        0x0000e3d2:    e03c        <.      B        0xe44e ; _printf_core + 1310
        0x0000e3d4:    2100        .!      MOVS     r1,#0
        0x0000e3d6:    2f11        ./      CMP      r7,#0x11
        0x0000e3d8:    db01        ..      BLT      0xe3de ; _printf_core + 1198
        0x0000e3da:    2011        .       MOVS     r0,#0x11
        0x0000e3dc:    e000        ..      B        0xe3e0 ; _printf_core + 1200
        0x0000e3de:    1c78        x.      ADDS     r0,r7,#1
        0x0000e3e0:    9101        ..      STR      r1,[sp,#4]
        0x0000e3e2:    9000        ..      STR      r0,[sp,#0]
        0x0000e3e4:    a908        ..      ADD      r1,sp,#0x20
        0x0000e3e6:    a811        ..      ADD      r0,sp,#0x44
        0x0000e3e8:    f7fffce8    ....    BL       _fp_digits ; 0xddbc
        0x0000e3ec:    9913        ..      LDR      r1,[sp,#0x4c]
        0x0000e3ee:    9105        ..      STR      r1,[sp,#0x14]
        0x0000e3f0:    2100        .!      MOVS     r1,#0
        0x0000e3f2:    9a11        ..      LDR      r2,[sp,#0x44]
        0x0000e3f4:    9215        ..      STR      r2,[sp,#0x54]
        0x0000e3f6:    1c7f        ..      ADDS     r7,r7,#1
        0x0000e3f8:    9812        ..      LDR      r0,[sp,#0x48]
        0x0000e3fa:    9701        ..      STR      r7,[sp,#4]
        0x0000e3fc:    9100        ..      STR      r1,[sp,#0]
        0x0000e3fe:    e050        P.      B        0xe4a2 ; _printf_core + 1394
        0x0000e400:    2001        .       MOVS     r0,#1
        0x0000e402:    07c0        ..      LSLS     r0,r0,#31
        0x0000e404:    9003        ..      STR      r0,[sp,#0xc]
        0x0000e406:    2001        .       MOVS     r0,#1
        0x0000e408:    9001        ..      STR      r0,[sp,#4]
        0x0000e40a:    a908        ..      ADD      r1,sp,#0x20
        0x0000e40c:    9700        ..      STR      r7,[sp,#0]
        0x0000e40e:    a811        ..      ADD      r0,sp,#0x44
        0x0000e410:    f7fffcd4    ....    BL       _fp_digits ; 0xddbc
        0x0000e414:    9a13        ..      LDR      r2,[sp,#0x4c]
        0x0000e416:    9914        ..      LDR      r1,[sp,#0x50]
        0x0000e418:    9205        ..      STR      r2,[sp,#0x14]
        0x0000e41a:    2200        ."      MOVS     r2,#0
        0x0000e41c:    9b11        ..      LDR      r3,[sp,#0x44]
        0x0000e41e:    9200        ..      STR      r2,[sp,#0]
        0x0000e420:    9812        ..      LDR      r0,[sp,#0x48]
        0x0000e422:    9315        ..      STR      r3,[sp,#0x54]
        0x0000e424:    9a05        ..      LDR      r2,[sp,#0x14]
        0x0000e426:    9201        ..      STR      r2,[sp,#4]
        0x0000e428:    2900        .)      CMP      r1,#0
        0x0000e42a:    d001        ..      BEQ      0xe430 ; _printf_core + 1280
        0x0000e42c:    4610        .F      MOV      r0,r2
        0x0000e42e:    e002        ..      B        0xe436 ; _printf_core + 1286
        0x0000e430:    1c79        y.      ADDS     r1,r7,#1
        0x0000e432:    1840        @.      ADDS     r0,r0,r1
        0x0000e434:    9001        ..      STR      r0,[sp,#4]
        0x0000e436:    1a38        8.      SUBS     r0,r7,r0
        0x0000e438:    d501        ..      BPL      0xe43e ; _printf_core + 1294
        0x0000e43a:    9801        ..      LDR      r0,[sp,#4]
        0x0000e43c:    e004        ..      B        0xe448 ; _printf_core + 1304
        0x0000e43e:    4240        @B      RSBS     r0,r0,#0
        0x0000e440:    1e40        @.      SUBS     r0,r0,#1
        0x0000e442:    9000        ..      STR      r0,[sp,#0]
        0x0000e444:    1c78        x.      ADDS     r0,r7,#1
        0x0000e446:    9001        ..      STR      r0,[sp,#4]
        0x0000e448:    1bc0        ..      SUBS     r0,r0,r7
        0x0000e44a:    9002        ..      STR      r0,[sp,#8]
        0x0000e44c:    e043        C.      B        0xe4d6 ; _printf_core + 1446
        0x0000e44e:    2f01        ./      CMP      r7,#1
        0x0000e450:    da00        ..      BGE      0xe454 ; _printf_core + 1316
        0x0000e452:    2701        .'      MOVS     r7,#1
        0x0000e454:    2100        .!      MOVS     r1,#0
        0x0000e456:    2f11        ./      CMP      r7,#0x11
        0x0000e458:    dd01        ..      BLE      0xe45e ; _printf_core + 1326
        0x0000e45a:    2011        .       MOVS     r0,#0x11
        0x0000e45c:    e000        ..      B        0xe460 ; _printf_core + 1328
        0x0000e45e:    4638        8F      MOV      r0,r7
        0x0000e460:    9101        ..      STR      r1,[sp,#4]
        0x0000e462:    9000        ..      STR      r0,[sp,#0]
        0x0000e464:    a908        ..      ADD      r1,sp,#0x20
        0x0000e466:    a811        ..      ADD      r0,sp,#0x44
        0x0000e468:    f7fffca8    ....    BL       _fp_digits ; 0xddbc
        0x0000e46c:    9913        ..      LDR      r1,[sp,#0x4c]
        0x0000e46e:    9105        ..      STR      r1,[sp,#0x14]
        0x0000e470:    9a11        ..      LDR      r2,[sp,#0x44]
        0x0000e472:    2100        .!      MOVS     r1,#0
        0x0000e474:    9812        ..      LDR      r0,[sp,#0x48]
        0x0000e476:    9215        ..      STR      r2,[sp,#0x54]
        0x0000e478:    9100        ..      STR      r1,[sp,#0]
        0x0000e47a:    9701        ..      STR      r7,[sp,#4]
        0x0000e47c:    0721        !.      LSLS     r1,r4,#28
        0x0000e47e:    d40c        ..      BMI      0xe49a ; _printf_core + 1386
        0x0000e480:    9905        ..      LDR      r1,[sp,#0x14]
        0x0000e482:    42b9        .B      CMP      r1,r7
        0x0000e484:    db01        ..      BLT      0xe48a ; _printf_core + 1370
        0x0000e486:    9901        ..      LDR      r1,[sp,#4]
        0x0000e488:    e000        ..      B        0xe48c ; _printf_core + 1372
        0x0000e48a:    9101        ..      STR      r1,[sp,#4]
        0x0000e48c:    2901        .)      CMP      r1,#1
        0x0000e48e:    dd04        ..      BLE      0xe49a ; _printf_core + 1386
        0x0000e490:    9a15        ..      LDR      r2,[sp,#0x54]
        0x0000e492:    1e49        I.      SUBS     r1,r1,#1
        0x0000e494:    5c51        Q\      LDRB     r1,[r2,r1]
        0x0000e496:    2930        0)      CMP      r1,#0x30
        0x0000e498:    d006        ..      BEQ      0xe4a8 ; _printf_core + 1400
        0x0000e49a:    42b8        .B      CMP      r0,r7
        0x0000e49c:    da01        ..      BGE      0xe4a2 ; _printf_core + 1394
        0x0000e49e:    1d01        ..      ADDS     r1,r0,#4
        0x0000e4a0:    da05        ..      BGE      0xe4ae ; _printf_core + 1406
        0x0000e4a2:    2101        .!      MOVS     r1,#1
        0x0000e4a4:    9102        ..      STR      r1,[sp,#8]
        0x0000e4a6:    e015        ..      B        0xe4d4 ; _printf_core + 1444
        0x0000e4a8:    9901        ..      LDR      r1,[sp,#4]
        0x0000e4aa:    1e49        I.      SUBS     r1,r1,#1
        0x0000e4ac:    e7ed        ..      B        0xe48a ; _printf_core + 1370
        0x0000e4ae:    2800        .(      CMP      r0,#0
        0x0000e4b0:    dc05        ..      BGT      0xe4be ; _printf_core + 1422
        0x0000e4b2:    9900        ..      LDR      r1,[sp,#0]
        0x0000e4b4:    1841        A.      ADDS     r1,r0,r1
        0x0000e4b6:    9100        ..      STR      r1,[sp,#0]
        0x0000e4b8:    9901        ..      LDR      r1,[sp,#4]
        0x0000e4ba:    1a09        ..      SUBS     r1,r1,r0
        0x0000e4bc:    e003        ..      B        0xe4c6 ; _printf_core + 1430
        0x0000e4be:    9a01        ..      LDR      r2,[sp,#4]
        0x0000e4c0:    1c41        A.      ADDS     r1,r0,#1
        0x0000e4c2:    4291        .B      CMP      r1,r2
        0x0000e4c4:    dd00        ..      BLE      0xe4c8 ; _printf_core + 1432
        0x0000e4c6:    9101        ..      STR      r1,[sp,#4]
        0x0000e4c8:    9900        ..      LDR      r1,[sp,#0]
        0x0000e4ca:    1a40        @.      SUBS     r0,r0,r1
        0x0000e4cc:    1c40        @.      ADDS     r0,r0,#1
        0x0000e4ce:    9002        ..      STR      r0,[sp,#8]
        0x0000e4d0:    2001        .       MOVS     r0,#1
        0x0000e4d2:    07c0        ..      LSLS     r0,r0,#31
        0x0000e4d4:    9003        ..      STR      r0,[sp,#0xc]
        0x0000e4d6:    0720         .      LSLS     r0,r4,#28
        0x0000e4d8:    d406        ..      BMI      0xe4e8 ; _printf_core + 1464
        0x0000e4da:    9902        ..      LDR      r1,[sp,#8]
        0x0000e4dc:    9801        ..      LDR      r0,[sp,#4]
        0x0000e4de:    4281        .B      CMP      r1,r0
        0x0000e4e0:    db02        ..      BLT      0xe4e8 ; _printf_core + 1464
        0x0000e4e2:    2000        .       MOVS     r0,#0
        0x0000e4e4:    43c0        .C      MVNS     r0,r0
        0x0000e4e6:    9002        ..      STR      r0,[sp,#8]
        0x0000e4e8:    2000        .       MOVS     r0,#0
        0x0000e4ea:    4669        iF      MOV      r1,sp
        0x0000e4ec:    77c8        .w      STRB     r0,[r1,#0x1f]
        0x0000e4ee:    af07        ..      ADD      r7,sp,#0x1c
        0x0000e4f0:    2101        .!      MOVS     r1,#1
        0x0000e4f2:    9803        ..      LDR      r0,[sp,#0xc]
        0x0000e4f4:    3703        .7      ADDS     r7,#3
        0x0000e4f6:    07c9        ..      LSLS     r1,r1,#31
        0x0000e4f8:    4288        .B      CMP      r0,r1
        0x0000e4fa:    d024        $.      BEQ      0xe546 ; _printf_core + 1558
        0x0000e4fc:    2002        .       MOVS     r0,#2
        0x0000e4fe:    9011        ..      STR      r0,[sp,#0x44]
        0x0000e500:    202b        +       MOVS     r0,#0x2b
        0x0000e502:    9012        ..      STR      r0,[sp,#0x48]
        0x0000e504:    9803        ..      LDR      r0,[sp,#0xc]
        0x0000e506:    2800        .(      CMP      r0,#0
        0x0000e508:    da0c        ..      BGE      0xe524 ; _printf_core + 1524
        0x0000e50a:    4240        @B      RSBS     r0,r0,#0
        0x0000e50c:    9003        ..      STR      r0,[sp,#0xc]
        0x0000e50e:    202d        -       MOVS     r0,#0x2d
        0x0000e510:    9012        ..      STR      r0,[sp,#0x48]
        0x0000e512:    e007        ..      B        0xe524 ; _printf_core + 1524
        0x0000e514:    210a        .!      MOVS     r1,#0xa
        0x0000e516:    9803        ..      LDR      r0,[sp,#0xc]
        0x0000e518:    f7fdfe02    ....    BL       __aeabi_uidiv ; 0xc120
        0x0000e51c:    3130        01      ADDS     r1,r1,#0x30
        0x0000e51e:    1e7f        ..      SUBS     r7,r7,#1
        0x0000e520:    9003        ..      STR      r0,[sp,#0xc]
        0x0000e522:    7039        9p      STRB     r1,[r7,#0]
        0x0000e524:    9911        ..      LDR      r1,[sp,#0x44]
        0x0000e526:    1e48        H.      SUBS     r0,r1,#1
        0x0000e528:    9011        ..      STR      r0,[sp,#0x44]
        0x0000e52a:    2900        .)      CMP      r1,#0
        0x0000e52c:    dcf2        ..      BGT      0xe514 ; _printf_core + 1508
        0x0000e52e:    9803        ..      LDR      r0,[sp,#0xc]
        0x0000e530:    2800        .(      CMP      r0,#0
        0x0000e532:    d1ef        ..      BNE      0xe514 ; _printf_core + 1508
        0x0000e534:    1e79        y.      SUBS     r1,r7,#1
        0x0000e536:    9812        ..      LDR      r0,[sp,#0x48]
        0x0000e538:    7008        .p      STRB     r0,[r1,#0]
        0x0000e53a:    7830        0x      LDRB     r0,[r6,#0]
        0x0000e53c:    2120         !      MOVS     r1,#0x20
        0x0000e53e:    4008        .@      ANDS     r0,r0,r1
        0x0000e540:    3045        E0      ADDS     r0,r0,#0x45
        0x0000e542:    1ebf        ..      SUBS     r7,r7,#2
        0x0000e544:    7038        8p      STRB     r0,[r7,#0]
        0x0000e546:    a806        ..      ADD      r0,sp,#0x18
        0x0000e548:    1bc0        ..      SUBS     r0,r0,r7
        0x0000e54a:    1dc0        ..      ADDS     r0,r0,#7
        0x0000e54c:    9003        ..      STR      r0,[sp,#0xc]
        0x0000e54e:    9810        ..      LDR      r0,[sp,#0x40]
        0x0000e550:    7800        .x      LDRB     r0,[r0,#0]
        0x0000e552:    2800        .(      CMP      r0,#0
        0x0000e554:    d000        ..      BEQ      0xe558 ; _printf_core + 1576
        0x0000e556:    2001        .       MOVS     r0,#1
        0x0000e558:    9901        ..      LDR      r1,[sp,#4]
        0x0000e55a:    1841        A.      ADDS     r1,r0,r1
        0x0000e55c:    9802        ..      LDR      r0,[sp,#8]
        0x0000e55e:    17c0        ..      ASRS     r0,r0,#31
        0x0000e560:    1809        ..      ADDS     r1,r1,r0
        0x0000e562:    9803        ..      LDR      r0,[sp,#0xc]
        0x0000e564:    1809        ..      ADDS     r1,r1,r0
        0x0000e566:    9804        ..      LDR      r0,[sp,#0x10]
        0x0000e568:    1a40        @.      SUBS     r0,r0,r1
        0x0000e56a:    1e40        @.      SUBS     r0,r0,#1
        0x0000e56c:    9004        ..      STR      r0,[sp,#0x10]
        0x0000e56e:    03e0        ..      LSLS     r0,r4,#15
        0x0000e570:    d406        ..      BMI      0xe580 ; _printf_core + 1616
        0x0000e572:    4621        !F      MOV      r1,r4
        0x0000e574:    9b1a        ..      LDR      r3,[sp,#0x68]
        0x0000e576:    9a19        ..      LDR      r2,[sp,#0x64]
        0x0000e578:    9804        ..      LDR      r0,[sp,#0x10]
        0x0000e57a:    f000f85f    .._.    BL       _printf_pre_padding ; 0xe63c
        0x0000e57e:    1945        E.      ADDS     r5,r0,r5
        0x0000e580:    9810        ..      LDR      r0,[sp,#0x40]
        0x0000e582:    7800        .x      LDRB     r0,[r0,#0]
        0x0000e584:    2800        .(      CMP      r0,#0
        0x0000e586:    d003        ..      BEQ      0xe590 ; _printf_core + 1632
        0x0000e588:    9a1a        ..      LDR      r2,[sp,#0x68]
        0x0000e58a:    9919        ..      LDR      r1,[sp,#0x64]
        0x0000e58c:    4790        .G      BLX      r2
        0x0000e58e:    1c6d        m.      ADDS     r5,r5,#1
        0x0000e590:    03e0        ..      LSLS     r0,r4,#15
        0x0000e592:    d524        $.      BPL      0xe5de ; _printf_core + 1710
        0x0000e594:    4621        !F      MOV      r1,r4
        0x0000e596:    9b1a        ..      LDR      r3,[sp,#0x68]
        0x0000e598:    9a19        ..      LDR      r2,[sp,#0x64]
        0x0000e59a:    9804        ..      LDR      r0,[sp,#0x10]
        0x0000e59c:    f000f84e    ..N.    BL       _printf_pre_padding ; 0xe63c
        0x0000e5a0:    1945        E.      ADDS     r5,r0,r5
        0x0000e5a2:    e01c        ..      B        0xe5de ; _printf_core + 1710
        0x0000e5a4:    9800        ..      LDR      r0,[sp,#0]
        0x0000e5a6:    2800        .(      CMP      r0,#0
        0x0000e5a8:    db07        ..      BLT      0xe5ba ; _printf_core + 1674
        0x0000e5aa:    9900        ..      LDR      r1,[sp,#0]
        0x0000e5ac:    9805        ..      LDR      r0,[sp,#0x14]
        0x0000e5ae:    4288        .B      CMP      r0,r1
        0x0000e5b0:    dd03        ..      BLE      0xe5ba ; _printf_core + 1674
        0x0000e5b2:    9815        ..      LDR      r0,[sp,#0x54]
        0x0000e5b4:    5c40        @\      LDRB     r0,[r0,r1]
        0x0000e5b6:    9919        ..      LDR      r1,[sp,#0x64]
        0x0000e5b8:    e001        ..      B        0xe5be ; _printf_core + 1678
        0x0000e5ba:    9919        ..      LDR      r1,[sp,#0x64]
        0x0000e5bc:    2030        0       MOVS     r0,#0x30
        0x0000e5be:    9a1a        ..      LDR      r2,[sp,#0x68]
        0x0000e5c0:    4790        .G      BLX      r2
        0x0000e5c2:    9800        ..      LDR      r0,[sp,#0]
        0x0000e5c4:    1c6d        m.      ADDS     r5,r5,#1
        0x0000e5c6:    1c40        @.      ADDS     r0,r0,#1
        0x0000e5c8:    9000        ..      STR      r0,[sp,#0]
        0x0000e5ca:    9802        ..      LDR      r0,[sp,#8]
        0x0000e5cc:    1e40        @.      SUBS     r0,r0,#1
        0x0000e5ce:    9002        ..      STR      r0,[sp,#8]
        0x0000e5d0:    2800        .(      CMP      r0,#0
        0x0000e5d2:    d104        ..      BNE      0xe5de ; _printf_core + 1710
        0x0000e5d4:    9a1a        ..      LDR      r2,[sp,#0x68]
        0x0000e5d6:    202e        .       MOVS     r0,#0x2e
        0x0000e5d8:    9919        ..      LDR      r1,[sp,#0x64]
        0x0000e5da:    4790        .G      BLX      r2
        0x0000e5dc:    1c6d        m.      ADDS     r5,r5,#1
        0x0000e5de:    9901        ..      LDR      r1,[sp,#4]
        0x0000e5e0:    1e48        H.      SUBS     r0,r1,#1
        0x0000e5e2:    9001        ..      STR      r0,[sp,#4]
        0x0000e5e4:    2900        .)      CMP      r1,#0
        0x0000e5e6:    dcdd        ..      BGT      0xe5a4 ; _printf_core + 1652
        0x0000e5e8:    e005        ..      B        0xe5f6 ; _printf_core + 1734
        0x0000e5ea:    7838        8x      LDRB     r0,[r7,#0]
        0x0000e5ec:    9a1a        ..      LDR      r2,[sp,#0x68]
        0x0000e5ee:    1c7f        ..      ADDS     r7,r7,#1
        0x0000e5f0:    9919        ..      LDR      r1,[sp,#0x64]
        0x0000e5f2:    4790        .G      BLX      r2
        0x0000e5f4:    1c6d        m.      ADDS     r5,r5,#1
        0x0000e5f6:    9903        ..      LDR      r1,[sp,#0xc]
        0x0000e5f8:    1e48        H.      SUBS     r0,r1,#1
        0x0000e5fa:    9003        ..      STR      r0,[sp,#0xc]
        0x0000e5fc:    2900        .)      CMP      r1,#0
        0x0000e5fe:    dcf4        ..      BGT      0xe5ea ; _printf_core + 1722
        0x0000e600:    4621        !F      MOV      r1,r4
        0x0000e602:    9b1a        ..      LDR      r3,[sp,#0x68]
        0x0000e604:    9a19        ..      LDR      r2,[sp,#0x64]
        0x0000e606:    9804        ..      LDR      r0,[sp,#0x10]
        0x0000e608:    e6ac        ..      B        0xe364 ; _printf_core + 1076
    $d
        0x0000e60a:    0000        ..      DCW    0
        0x0000e60c:    0000002d    -...    DCD    45
        0x0000e610:    0000002b    +...    DCD    43
        0x0000e614:    00000020     ...    DCD    32
        0x0000e618:    00000000    ....    DCD    0
    $t
    i._printf_post_padding
    _printf_post_padding
        0x0000e61c:    b5f8        ..      PUSH     {r3-r7,lr}
        0x0000e61e:    4604        .F      MOV      r4,r0
        0x0000e620:    2500        .%      MOVS     r5,#0
        0x0000e622:    461e        .F      MOV      r6,r3
        0x0000e624:    4617        .F      MOV      r7,r2
        0x0000e626:    0488        ..      LSLS     r0,r1,#18
        0x0000e628:    d404        ..      BMI      0xe634 ; _printf_post_padding + 24
        0x0000e62a:    e005        ..      B        0xe638 ; _printf_post_padding + 28
        0x0000e62c:    4639        9F      MOV      r1,r7
        0x0000e62e:    2020                MOVS     r0,#0x20
        0x0000e630:    47b0        .G      BLX      r6
        0x0000e632:    1c6d        m.      ADDS     r5,r5,#1
        0x0000e634:    1e64        d.      SUBS     r4,r4,#1
        0x0000e636:    d5f9        ..      BPL      0xe62c ; _printf_post_padding + 16
        0x0000e638:    4628        (F      MOV      r0,r5
        0x0000e63a:    bdf8        ..      POP      {r3-r7,pc}
    i._printf_pre_padding
    _printf_pre_padding
        0x0000e63c:    b5ff        ..      PUSH     {r0-r7,lr}
        0x0000e63e:    4604        .F      MOV      r4,r0
        0x0000e640:    2500        .%      MOVS     r5,#0
        0x0000e642:    b081        ..      SUB      sp,sp,#4
        0x0000e644:    461e        .F      MOV      r6,r3
        0x0000e646:    03c8        ..      LSLS     r0,r1,#15
        0x0000e648:    d501        ..      BPL      0xe64e ; _printf_pre_padding + 18
        0x0000e64a:    2730        0'      MOVS     r7,#0x30
        0x0000e64c:    e000        ..      B        0xe650 ; _printf_pre_padding + 20
        0x0000e64e:    2720         '      MOVS     r7,#0x20
        0x0000e650:    0488        ..      LSLS     r0,r1,#18
        0x0000e652:    d504        ..      BPL      0xe65e ; _printf_pre_padding + 34
        0x0000e654:    e005        ..      B        0xe662 ; _printf_pre_padding + 38
        0x0000e656:    4638        8F      MOV      r0,r7
        0x0000e658:    9903        ..      LDR      r1,[sp,#0xc]
        0x0000e65a:    47b0        .G      BLX      r6
        0x0000e65c:    1c6d        m.      ADDS     r5,r5,#1
        0x0000e65e:    1e64        d.      SUBS     r4,r4,#1
        0x0000e660:    d5f9        ..      BPL      0xe656 ; _printf_pre_padding + 26
        0x0000e662:    4628        (F      MOV      r0,r5
        0x0000e664:    b005        ..      ADD      sp,sp,#0x14
        0x0000e666:    bdf0        ..      POP      {r4-r7,pc}
    $d.realdata
    .L__const.CLK_SetModuleClock.u32SelTbl
        0x0000e668:    00000000    ....    DCD    0
        0x0000e66c:    00000004    ....    DCD    4
        0x0000e670:    0000000c    ....    DCD    12
        0x0000e674:    00000024    $...    DCD    36
    .L__const.CLK_EnableModuleClock.u32OffsetTbl
        0x0000e678:    00000000    ....    DCD    0
        0x0000e67c:    00000004    ....    DCD    4
        0x0000e680:    0000002c    ,...    DCD    44
        0x0000e684:    00000000    ....    DCD    0
    .L__const.CLK_DisableModuleClock.u32OffsetTbl
        0x0000e688:    00000000    ....    DCD    0
        0x0000e68c:    00000004    ....    DCD    4
        0x0000e690:    0000002c    ,...    DCD    44
        0x0000e694:    00000000    ....    DCD    0
    .L__const.UART_Open.u32ClkTbl
        0x0000e698:    00b71b00    ....    DCD    12000000
        0x0000e69c:    00000000    ....    DCD    0
        0x0000e6a0:    00000000    ....    DCD    0
        0x0000e6a4:    01518000    ..Q.    DCD    22118400
    .L__const.UART_SetLine_Config.u32ClkTbl
        0x0000e6a8:    00b71b00    ....    DCD    12000000
        0x0000e6ac:    00000000    ....    DCD    0
        0x0000e6b0:    00000000    ....    DCD    0
        0x0000e6b4:    01518000    ..Q.    DCD    22118400
    .L__const.UART_SelectIrDAMode.u32ClkTbl
        0x0000e6b8:    00b71b00    ....    DCD    12000000
        0x0000e6bc:    00000000    ....    DCD    0
        0x0000e6c0:    00000000    ....    DCD    0
        0x0000e6c4:    01518000    ..Q.    DCD    22118400
    .L__const.TIMER_GetModuleClock.au32Clk
        0x0000e6c8:    00b71b00    ....    DCD    12000000
        0x0000e6cc:    00008000    ....    DCD    32768
        0x0000e6d0:    00000000    ....    DCD    0
        0x0000e6d4:    00000000    ....    DCD    0
        0x0000e6d8:    00000000    ....    DCD    0
        0x0000e6dc:    00002710    .'..    DCD    10000
        0x0000e6e0:    00000000    ....    DCD    0
        0x0000e6e4:    01518000    ..Q.    DCD    22118400
    .L__const.CLK_SetModuleClock.u32DivTbl
        0x0000e6e8:    00000000    ....    DCD    0
        0x0000e6ec:    00000020     ...    DCD    32
    .L.str
        0x0000e6f0:    20544457    WDT     DCD    542393431
        0x0000e6f4:    656d6974    time    DCD    1701669236
        0x0000e6f8:    74756f2d    -out    DCD    1953853229
        0x0000e6fc:    746e6920     int    DCD    1953392928
        0x0000e700:    75727265    erru    DCD    1970434661
        0x0000e704:    6f207470    pt o    DCD    1864397936
        0x0000e708:    72756363    ccur    DCD    1920295779
        0x0000e70c:    2e646572    red.    DCD    778331506
        0x0000e710:    000a        ..      DCW    10
    .L.str.1
    .L.str.2
        0x0000e712:    754e        Nu      DCW    30030
        0x0000e714:    686e2074    t nh    DCD    1752047732
        0x0000e718:    3d206e61    an =    DCD    1025535585
        0x0000e71c:    000a3020     0..    DCD    667680
    .L.str.3
        0x0000e720:    2074754e    Nut     DCD    544503118
        0x0000e724:    6e61686e    nhan    DCD    1851877486
        0x0000e728:    31203d20     = 1    DCD    824196384
        0x0000e72c:    000a        ..      DCW    10
    .L.str.7
        0x0000e72e:    6843        Ch      DCW    26691
        0x0000e730:    63207961    ay c    DCD    1663072609
        0x0000e734:    6e6f7568    huon    DCD    1852798312
        0x0000e738:    72742067    g tr    DCD    1920213095
        0x0000e73c:    20686e69    inh     DCD    543714921
        0x0000e740:    0a31        1.      DCW    2609
        0x0000e742:    00          .       DCB    0
    .L.str.1
        0x0000e743:    55          U       DCB    85
        0x0000e744:    74616470    pdat    DCD    1952539760
        0x0000e748:    31574665    eFW1    DCD    827803237
        0x0000e74c:    000a        ..      DCW    10
    .L.str.8
        0x0000e74e:    6843        Ch      DCW    26691
        0x0000e750:    63207961    ay c    DCD    1663072609
        0x0000e754:    6e6f7568    huon    DCD    1852798312
        0x0000e758:    72742067    g tr    DCD    1920213095
        0x0000e75c:    20686e69    inh     DCD    543714921
        0x0000e760:    0a32        2.      DCW    2610
        0x0000e762:    00          .       DCB    0
    .L.str.4
        0x0000e763:    43          C       DCB    67
        0x0000e764:    5746206f    o FW    DCD    1464213615
        0x0000e768:    0a32        2.      DCW    2610
        0x0000e76a:    00          .       DCB    0
    .L.str
        0x0000e76b:    55          U       DCB    85
        0x0000e76c:    74616470    pdat    DCD    1952539760
        0x0000e770:    32574665    eFW2    DCD    844580453
        0x0000e774:    000a        ..      DCW    10
    .L.str.6
        0x0000e776:    684b        Kh      DCW    26699
        0x0000e778:    20676e6f    ong     DCD    543649391
        0x0000e77c:    63206f63    co c    DCD    1663070051
        0x0000e780:    20322061    a 2     DCD    540156001
        0x0000e784:    000a5746    FW..    DCD    677702
    .L.str.5
        0x0000e788:    20325746    FW2     DCD    540170054
        0x0000e78c:    0a696f6c    loi.    DCD    174681964
        0x0000e790:    00          .       DCB    0
    .L.str
        0x0000e791:    496e20      In      DCB    73,110,32
        0x0000e794:    64726148    Hard    DCD    1685217608
        0x0000e798:    75614620     Fau    DCD    1969309216
        0x0000e79c:    4820746c    lt H    DCD    1210086508
        0x0000e7a0:    6c646e61    andl    DCD    1818521185
        0x0000e7a4:    000a7265    er..    DCD    684645
    .L.str.1
        0x0000e7a8:    20203072    r0      DCD    538980466
        0x0000e7ac:    7830203d    = 0x    DCD    2016419901
        0x0000e7b0:    000a7825    %x..    DCD    686117
    .L.str.2
        0x0000e7b4:    20203172    r1      DCD    538980722
        0x0000e7b8:    7830203d    = 0x    DCD    2016419901
        0x0000e7bc:    000a7825    %x..    DCD    686117
    .L.str.3
        0x0000e7c0:    20203272    r2      DCD    538980978
        0x0000e7c4:    7830203d    = 0x    DCD    2016419901
        0x0000e7c8:    000a7825    %x..    DCD    686117
    .L.str.4
        0x0000e7cc:    20203372    r3      DCD    538981234
        0x0000e7d0:    7830203d    = 0x    DCD    2016419901
        0x0000e7d4:    000a7825    %x..    DCD    686117
    .L.str.7
        0x0000e7d8:    20206370    pc      DCD    538993520
        0x0000e7dc:    7830203d    = 0x    DCD    2016419901
        0x0000e7e0:    000a7825    %x..    DCD    686117
    .L.str.6
        0x0000e7e4:    2020726c    lr      DCD    538997356
        0x0000e7e8:    7830203d    = 0x    DCD    2016419901
        0x0000e7ec:    000a7825    %x..    DCD    686117
    .L.str.5
        0x0000e7f0:    20323172    r12     DCD    540160370
        0x0000e7f4:    7830203d    = 0x    DCD    2016419901
        0x0000e7f8:    000a7825    %x..    DCD    686117
    .L.str.8
        0x0000e7fc:    20727370    psr     DCD    544371568
        0x0000e800:    7830203d    = 0x    DCD    2016419901
        0x0000e804:    000a7825    %x..    DCD    686117
    .L.str
        0x0000e808:    746f6f42    Boot    DCD    1953460034
        0x0000e80c:    64616f4c    Load    DCD    1684107084
        0x0000e810:    000a7265    er..    DCD    684645
    Region$$Table$$Base
        0x0000e814:    0000e838    8...    DCD    59448
        0x0000e818:    20000000    ...     DCD    536870912
        0x0000e81c:    00000030    0...    DCD    48
        0x0000e820:    0000dd9e    ....    DCD    56734
        0x0000e824:    0000e868    h...    DCD    59496
        0x0000e828:    20000030    0..     DCD    536870960
        0x0000e82c:    000004f0    ....    DCD    1264
        0x0000e830:    0000ddae    ....    DCD    56750
    Region$$Table$$Limit

** Section #2 'RW_IRAM1' (SHT_PROGBITS) [SHF_ALLOC + SHF_WRITE]
    Size   : 48 bytes (alignment 8)
    Address: 0x20000000


** Section #3 'RW_IRAM1' (SHT_NOBITS) [SHF_ALLOC + SHF_WRITE]
    Size   : 1264 bytes (alignment 8)
    Address: 0x20000030


** Section #4 '.debug_abbrev' (SHT_PROGBITS)
    Size   : 4019 bytes


** Section #5 '.debug_frame' (SHT_PROGBITS)
    Size   : 4144 bytes


** Section #6 '.debug_info' (SHT_PROGBITS)
    Size   : 15632 bytes


** Section #7 '.debug_line' (SHT_PROGBITS)
    Size   : 13710 bytes


** Section #8 '.debug_str' (SHT_PROGBITS)
    Size   : 10389 bytes


** Section #9 '.debug_ranges' (SHT_PROGBITS)
    Size   : 1184 bytes


** Section #10 '.symtab' (SHT_SYMTAB)
    Size   : 7840 bytes (alignment 4)
    String table #11 '.strtab'
    Last local symbol no. 360


** Section #11 '.strtab' (SHT_STRTAB)
    Size   : 5272 bytes


** Section #12 '.note' (SHT_NOTE)
    Size   : 28 bytes (alignment 4)


** Section #13 '.comment' (SHT_PROGBITS)
    Size   : 1336 bytes


** Section #14 '.shstrtab' (SHT_STRTAB)
    Size   : 136 bytes


